   1               		.file	"main.c"
   2               	__SREG__ = 0x3f
   3               	__SP_H__ = 0x3e
   4               	__SP_L__ = 0x3d
   5               	__CCP__  = 0x34
   6               	__tmp_reg__ = 0
   7               	__zero_reg__ = 1
   8               		.global __do_copy_data
   9               		.global __do_clear_bss
  17               	.Ltext0:
  18               	.global	fillSnake
  20               	fillSnake:
  21               	.LFB7:
  22               	.LM1:
  23               	/* prologue: function */
  24               	/* frame size = 0 */
  25               	.LM2:
  26 0000 80E0      		ldi r24,lo8(0)
  27 0002 90E0      		ldi r25,hi8(0)
  28               	.LVL0:
  29               	.LBB46:
  30               	.LBB47:
  31               	.LM3:
  32 0004 2FEF      		ldi r18,lo8(-1)
  33 0006 3FEF      		ldi r19,hi8(-1)
  34               	.L2:
  35 0008 FC01      		movw r30,r24
  36 000a EE0F      		lsl r30
  37 000c FF1F      		rol r31
  38 000e E80F      		add r30,r24
  39 0010 F91F      		adc r31,r25
  40 0012 EE0F      		lsl r30
  41 0014 FF1F      		rol r31
  42 0016 DF01      		movw r26,r30
  43 0018 A050      		subi r26,lo8(-(snake))
  44 001a B040      		sbci r27,hi8(-(snake))
  45 001c 1196      		adiw r26,1
  46 001e 3C93      		st X,r19
  47 0020 2E93      		st -X,r18
  48 0022 E050      		subi r30,lo8(-(snake+2))
  49 0024 F040      		sbci r31,hi8(-(snake+2))
  50 0026 3183      		std Z+1,r19
  51 0028 2083      		st Z,r18
  52 002a 1596      		adiw r26,4+1
  53 002c 3C93      		st X,r19
  54 002e 2E93      		st -X,r18
  55 0030 1497      		sbiw r26,4
  56               	.LBE47:
  57               	.LM4:
  58 0032 0196      		adiw r24,1
  59 0034 8E31      		cpi r24,30
  60 0036 9105      		cpc r25,__zero_reg__
  61 0038 01F4      		brne .L2
  62               	/* epilogue start */
  63               	.LBE46:
  64               	.LM5:
  65 003a 0895      		ret
  66               	.LFE7:
  68               	.global	snakeMove
  70               	snakeMove:
  71               	.LFB9:
  72               	.LM6:
  73 003c 1F93      		push r17
  74 003e CF93      		push r28
  75 0040 DF93      		push r29
  76               	/* prologue: function */
  77               	/* frame size = 0 */
  78               	.LM7:
  79 0042 8091 0000 		lds r24,snake+6
  80 0046 9091 0000 		lds r25,(snake+6)+1
  81 004a 8F5F      		subi r24,lo8(-1)
  82 004c 9F4F      		sbci r25,hi8(-1)
  83 004e 01F4      		brne .+2
  84 0050 00C0      		rjmp .L6
  85 0052 81E0      		ldi r24,lo8(1)
  86 0054 90E0      		ldi r25,hi8(1)
  87 0056 00C0      		rjmp .L7
  88               	.LVL1:
  89               	.L9:
  90               	.LM8:
  91 0058 FE01      		movw r30,r28
  92 005a E20F      		add r30,r18
  93 005c F31F      		adc r31,r19
  94 005e EE0F      		lsl r30
  95 0060 FF1F      		rol r31
  96 0062 E050      		subi r30,lo8(-(snake))
  97 0064 F040      		sbci r31,hi8(-(snake))
  98 0066 8081      		ld r24,Z
  99 0068 9181      		ldd r25,Z+1
 100 006a 8F5F      		subi r24,lo8(-1)
 101 006c 9F4F      		sbci r25,hi8(-1)
 102 006e 01F0      		breq .L8
 103               	.LM9:
 104 0070 8081      		ld r24,Z
 105 0072 9181      		ldd r25,Z+1
 106 0074 FD01      		movw r30,r26
 107 0076 E20F      		add r30,r18
 108 0078 F31F      		adc r31,r19
 109 007a EE0F      		lsl r30
 110 007c FF1F      		rol r31
 111 007e E050      		subi r30,lo8(-(snake))
 112 0080 F040      		sbci r31,hi8(-(snake))
 113 0082 9183      		std Z+1,r25
 114 0084 8083      		st Z,r24
 115               	.LM10:
 116 0086 2F5F      		subi r18,lo8(-(1))
 117 0088 3F4F      		sbci r19,hi8(-(1))
 118 008a 2E31      		cpi r18,30
 119 008c 3105      		cpc r19,__zero_reg__
 120 008e 01F4      		brne .L9
 121               	.L8:
 122               	.LM11:
 123 0090 FB01      		movw r30,r22
 124 0092 EE0F      		lsl r30
 125 0094 FF1F      		rol r31
 126 0096 E60F      		add r30,r22
 127 0098 F71F      		adc r31,r23
 128 009a E20F      		add r30,r18
 129 009c F31F      		adc r31,r19
 130 009e EE0F      		lsl r30
 131 00a0 FF1F      		rol r31
 132 00a2 E050      		subi r30,lo8(-(snake))
 133 00a4 F040      		sbci r31,hi8(-(snake))
 134 00a6 8081      		ld r24,Z
 135 00a8 9181      		ldd r25,Z+1
 136 00aa 8F5F      		subi r24,lo8(-1)
 137 00ac 9F4F      		sbci r25,hi8(-1)
 138               	.LVL2:
 139 00ae 01F0      		breq .L10
 140               	.LM12:
 141 00b0 6E31      		cpi r22,30
 142 00b2 7105      		cpc r23,__zero_reg__
 143 00b4 01F0      		breq .L11
 144 00b6 CB01      		movw r24,r22
 145               	.L7:
 146 00b8 AC01      		movw r20,r24
 147 00ba 20E0      		ldi r18,lo8(0)
 148 00bc 30E0      		ldi r19,hi8(0)
 149               	.LVL3:
 150               	.LM13:
 151 00be BC01      		movw r22,r24
 152 00c0 6F5F      		subi r22,lo8(-(1))
 153 00c2 7F4F      		sbci r23,hi8(-(1))
 154               	.LM14:
 155 00c4 EB01      		movw r28,r22
 156 00c6 CC0F      		lsl r28
 157 00c8 DD1F      		rol r29
 158 00ca C60F      		add r28,r22
 159 00cc D71F      		adc r29,r23
 160               	.LM15:
 161 00ce DA01      		movw r26,r20
 162 00d0 AA0F      		lsl r26
 163 00d2 BB1F      		rol r27
 164 00d4 A40F      		add r26,r20
 165 00d6 B51F      		adc r27,r21
 166 00d8 00C0      		rjmp .L9
 167               	.LVL4:
 168               	.L11:
 169               	.LM16:
 170 00da 4EE1      		ldi r20,lo8(30)
 171 00dc 50E0      		ldi r21,hi8(30)
 172               	.L10:
 173               	.LM17:
 174 00de 8091 0000 		lds r24,direction
 175 00e2 9091 0000 		lds r25,(direction)+1
 176 00e6 8230      		cpi r24,2
 177 00e8 9105      		cpc r25,__zero_reg__
 178 00ea 01F0      		breq .L15
 179 00ec 8330      		cpi r24,3
 180 00ee 9105      		cpc r25,__zero_reg__
 181 00f0 04F4      		brge .L19
 182 00f2 0097      		sbiw r24,0
 183 00f4 01F0      		breq .L13
 184 00f6 0197      		sbiw r24,1
 185 00f8 01F0      		breq .+2
 186 00fa 00C0      		rjmp .L12
 187 00fc 00C0      		rjmp .L112
 188               	.L19:
 189 00fe 8430      		cpi r24,4
 190 0100 9105      		cpc r25,__zero_reg__
 191 0102 01F4      		brne .+2
 192 0104 00C0      		rjmp .L17
 193 0106 8430      		cpi r24,4
 194 0108 9105      		cpc r25,__zero_reg__
 195 010a 04F0      		brlt .L16
 196 010c 0597      		sbiw r24,5
 197 010e 01F0      		breq .+2
 198 0110 00C0      		rjmp .L12
 199 0112 00C0      		rjmp .L113
 200               	.L13:
 201               	.LM18:
 202 0114 CA01      		movw r24,r20
 203 0116 0196      		adiw r24,1
 204 0118 FC01      		movw r30,r24
 205 011a EE0F      		lsl r30
 206 011c FF1F      		rol r31
 207 011e E80F      		add r30,r24
 208 0120 F91F      		adc r31,r25
 209 0122 EE0F      		lsl r30
 210 0124 FF1F      		rol r31
 211 0126 E050      		subi r30,lo8(-(snake))
 212 0128 F040      		sbci r31,hi8(-(snake))
 213 012a 8081      		ld r24,Z
 214 012c 9181      		ldd r25,Z+1
 215 012e 00C0      		rjmp .L71
 216               	.L112:
 217               	.LM19:
 218 0130 CA01      		movw r24,r20
 219 0132 0196      		adiw r24,1
 220 0134 FC01      		movw r30,r24
 221 0136 EE0F      		lsl r30
 222 0138 FF1F      		rol r31
 223 013a E80F      		add r30,r24
 224 013c F91F      		adc r31,r25
 225 013e EE0F      		lsl r30
 226 0140 FF1F      		rol r31
 227 0142 E050      		subi r30,lo8(-(snake))
 228 0144 F040      		sbci r31,hi8(-(snake))
 229               	.L72:
 230 0146 8081      		ld r24,Z
 231 0148 9181      		ldd r25,Z+1
 232 014a 9183      		std Z+1,r25
 233 014c 8083      		st Z,r24
 234 014e 0197      		sbiw r24,1
 235               	.L67:
 236 0150 9183      		std Z+1,r25
 237 0152 8083      		st Z,r24
 238 0154 00C0      		rjmp .L12
 239               	.L15:
 240               	.LM20:
 241 0156 CA01      		movw r24,r20
 242 0158 0196      		adiw r24,1
 243 015a FC01      		movw r30,r24
 244 015c EE0F      		lsl r30
 245 015e FF1F      		rol r31
 246 0160 E80F      		add r30,r24
 247 0162 F91F      		adc r31,r25
 248 0164 EE0F      		lsl r30
 249 0166 FF1F      		rol r31
 250 0168 E050      		subi r30,lo8(-(snake+2))
 251 016a F040      		sbci r31,hi8(-(snake+2))
 252 016c 8081      		ld r24,Z
 253 016e 9181      		ldd r25,Z+1
 254 0170 9183      		std Z+1,r25
 255 0172 8083      		st Z,r24
 256               	.L71:
 257 0174 0196      		adiw r24,1
 258 0176 00C0      		rjmp .L67
 259               	.L16:
 260               	.LM21:
 261 0178 CA01      		movw r24,r20
 262 017a 0196      		adiw r24,1
 263 017c FC01      		movw r30,r24
 264 017e EE0F      		lsl r30
 265 0180 FF1F      		rol r31
 266 0182 E80F      		add r30,r24
 267 0184 F91F      		adc r31,r25
 268 0186 EE0F      		lsl r30
 269 0188 FF1F      		rol r31
 270 018a E050      		subi r30,lo8(-(snake+2))
 271 018c F040      		sbci r31,hi8(-(snake+2))
 272 018e 00C0      		rjmp .L72
 273               	.L17:
 274               	.LM22:
 275 0190 CA01      		movw r24,r20
 276 0192 0196      		adiw r24,1
 277 0194 FC01      		movw r30,r24
 278 0196 EE0F      		lsl r30
 279 0198 FF1F      		rol r31
 280 019a E80F      		add r30,r24
 281 019c F91F      		adc r31,r25
 282 019e EE0F      		lsl r30
 283 01a0 FF1F      		rol r31
 284 01a2 E050      		subi r30,lo8(-(snake))
 285 01a4 F040      		sbci r31,hi8(-(snake))
 286 01a6 8481      		ldd r24,Z+4
 287 01a8 9581      		ldd r25,Z+5
 288 01aa 9583      		std Z+5,r25
 289 01ac 8483      		std Z+4,r24
 290 01ae 0196      		adiw r24,1
 291 01b0 00C0      		rjmp .L68
 292               	.L113:
 293               	.LM23:
 294 01b2 CA01      		movw r24,r20
 295 01b4 0196      		adiw r24,1
 296 01b6 FC01      		movw r30,r24
 297 01b8 EE0F      		lsl r30
 298 01ba FF1F      		rol r31
 299 01bc E80F      		add r30,r24
 300 01be F91F      		adc r31,r25
 301 01c0 EE0F      		lsl r30
 302 01c2 FF1F      		rol r31
 303 01c4 E050      		subi r30,lo8(-(snake))
 304 01c6 F040      		sbci r31,hi8(-(snake))
 305 01c8 8481      		ldd r24,Z+4
 306 01ca 9581      		ldd r25,Z+5
 307 01cc 9583      		std Z+5,r25
 308 01ce 8483      		std Z+4,r24
 309 01d0 0197      		sbiw r24,1
 310               	.L68:
 311 01d2 9583      		std Z+5,r25
 312 01d4 8483      		std Z+4,r24
 313               	.L12:
 314               	.LM24:
 315 01d6 9A01      		movw r18,r20
 316 01d8 2F5F      		subi r18,lo8(-(1))
 317 01da 3F4F      		sbci r19,hi8(-(1))
 318 01dc F901      		movw r30,r18
 319 01de EE0F      		lsl r30
 320 01e0 FF1F      		rol r31
 321 01e2 E20F      		add r30,r18
 322 01e4 F31F      		adc r31,r19
 323 01e6 EE0F      		lsl r30
 324 01e8 FF1F      		rol r31
 325 01ea E050      		subi r30,lo8(-(snake))
 326 01ec F040      		sbci r31,hi8(-(snake))
 327 01ee 8081      		ld r24,Z
 328 01f0 9181      		ldd r25,Z+1
 329 01f2 0597      		sbiw r24,5
 330 01f4 04F0      		brlt .L20
 331 01f6 FA01      		movw r30,r20
 332 01f8 EE0F      		lsl r30
 333 01fa FF1F      		rol r31
 334 01fc E40F      		add r30,r20
 335 01fe F51F      		adc r31,r21
 336 0200 EE0F      		lsl r30
 337 0202 FF1F      		rol r31
 338 0204 E050      		subi r30,lo8(-(snake))
 339 0206 F040      		sbci r31,hi8(-(snake))
 340 0208 1182      		std Z+1,__zero_reg__
 341 020a 1082      		st Z,__zero_reg__
 342               	.L20:
 343               	.LM25:
 344 020c F901      		movw r30,r18
 345 020e EE0F      		lsl r30
 346 0210 FF1F      		rol r31
 347 0212 E20F      		add r30,r18
 348 0214 F31F      		adc r31,r19
 349 0216 EE0F      		lsl r30
 350 0218 FF1F      		rol r31
 351 021a E050      		subi r30,lo8(-(snake+2))
 352 021c F040      		sbci r31,hi8(-(snake+2))
 353 021e 8081      		ld r24,Z
 354 0220 9181      		ldd r25,Z+1
 355 0222 0597      		sbiw r24,5
 356 0224 04F0      		brlt .L21
 357 0226 FA01      		movw r30,r20
 358 0228 EE0F      		lsl r30
 359 022a FF1F      		rol r31
 360 022c E40F      		add r30,r20
 361 022e F51F      		adc r31,r21
 362 0230 EE0F      		lsl r30
 363 0232 FF1F      		rol r31
 364 0234 E050      		subi r30,lo8(-(snake+2))
 365 0236 F040      		sbci r31,hi8(-(snake+2))
 366 0238 1182      		std Z+1,__zero_reg__
 367 023a 1082      		st Z,__zero_reg__
 368               	.L21:
 369               	.LM26:
 370 023c F901      		movw r30,r18
 371 023e EE0F      		lsl r30
 372 0240 FF1F      		rol r31
 373 0242 E20F      		add r30,r18
 374 0244 F31F      		adc r31,r19
 375 0246 EE0F      		lsl r30
 376 0248 FF1F      		rol r31
 377 024a E050      		subi r30,lo8(-(snake))
 378 024c F040      		sbci r31,hi8(-(snake))
 379 024e 8481      		ldd r24,Z+4
 380 0250 9581      		ldd r25,Z+5
 381 0252 0597      		sbiw r24,5
 382 0254 04F0      		brlt .L22
 383 0256 FA01      		movw r30,r20
 384 0258 EE0F      		lsl r30
 385 025a FF1F      		rol r31
 386 025c E40F      		add r30,r20
 387 025e F51F      		adc r31,r21
 388 0260 EE0F      		lsl r30
 389 0262 FF1F      		rol r31
 390 0264 E050      		subi r30,lo8(-(snake))
 391 0266 F040      		sbci r31,hi8(-(snake))
 392 0268 1582      		std Z+5,__zero_reg__
 393 026a 1482      		std Z+4,__zero_reg__
 394               	.L22:
 395               	.LM27:
 396 026c F901      		movw r30,r18
 397 026e EE0F      		lsl r30
 398 0270 FF1F      		rol r31
 399 0272 E20F      		add r30,r18
 400 0274 F31F      		adc r31,r19
 401 0276 EE0F      		lsl r30
 402 0278 FF1F      		rol r31
 403 027a E050      		subi r30,lo8(-(snake))
 404 027c F040      		sbci r31,hi8(-(snake))
 405 027e 8081      		ld r24,Z
 406 0280 9181      		ldd r25,Z+1
 407 0282 97FF      		sbrs r25,7
 408 0284 00C0      		rjmp .L23
 409 0286 FA01      		movw r30,r20
 410 0288 EE0F      		lsl r30
 411 028a FF1F      		rol r31
 412 028c E40F      		add r30,r20
 413 028e F51F      		adc r31,r21
 414 0290 EE0F      		lsl r30
 415 0292 FF1F      		rol r31
 416 0294 E050      		subi r30,lo8(-(snake))
 417 0296 F040      		sbci r31,hi8(-(snake))
 418 0298 84E0      		ldi r24,lo8(4)
 419 029a 90E0      		ldi r25,hi8(4)
 420 029c 9183      		std Z+1,r25
 421 029e 8083      		st Z,r24
 422               	.L23:
 423               	.LM28:
 424 02a0 F901      		movw r30,r18
 425 02a2 EE0F      		lsl r30
 426 02a4 FF1F      		rol r31
 427 02a6 E20F      		add r30,r18
 428 02a8 F31F      		adc r31,r19
 429 02aa EE0F      		lsl r30
 430 02ac FF1F      		rol r31
 431 02ae E050      		subi r30,lo8(-(snake+2))
 432 02b0 F040      		sbci r31,hi8(-(snake+2))
 433 02b2 8081      		ld r24,Z
 434 02b4 9181      		ldd r25,Z+1
 435 02b6 97FF      		sbrs r25,7
 436 02b8 00C0      		rjmp .L24
 437 02ba FA01      		movw r30,r20
 438 02bc EE0F      		lsl r30
 439 02be FF1F      		rol r31
 440 02c0 E40F      		add r30,r20
 441 02c2 F51F      		adc r31,r21
 442 02c4 EE0F      		lsl r30
 443 02c6 FF1F      		rol r31
 444 02c8 E050      		subi r30,lo8(-(snake+2))
 445 02ca F040      		sbci r31,hi8(-(snake+2))
 446 02cc 84E0      		ldi r24,lo8(4)
 447 02ce 90E0      		ldi r25,hi8(4)
 448 02d0 9183      		std Z+1,r25
 449 02d2 8083      		st Z,r24
 450               	.L24:
 451               	.LM29:
 452 02d4 F901      		movw r30,r18
 453 02d6 EE0F      		lsl r30
 454 02d8 FF1F      		rol r31
 455 02da E20F      		add r30,r18
 456 02dc F31F      		adc r31,r19
 457 02de EE0F      		lsl r30
 458 02e0 FF1F      		rol r31
 459 02e2 E050      		subi r30,lo8(-(snake))
 460 02e4 F040      		sbci r31,hi8(-(snake))
 461 02e6 8481      		ldd r24,Z+4
 462 02e8 9581      		ldd r25,Z+5
 463 02ea 97FF      		sbrs r25,7
 464 02ec 00C0      		rjmp .L25
 465 02ee FA01      		movw r30,r20
 466 02f0 EE0F      		lsl r30
 467 02f2 FF1F      		rol r31
 468 02f4 E40F      		add r30,r20
 469 02f6 F51F      		adc r31,r21
 470 02f8 EE0F      		lsl r30
 471 02fa FF1F      		rol r31
 472 02fc E050      		subi r30,lo8(-(snake))
 473 02fe F040      		sbci r31,hi8(-(snake))
 474 0300 84E0      		ldi r24,lo8(4)
 475 0302 90E0      		ldi r25,hi8(4)
 476 0304 9583      		std Z+5,r25
 477 0306 8483      		std Z+4,r24
 478               	.L25:
 479               	.LM30:
 480 0308 F901      		movw r30,r18
 481 030a EE0F      		lsl r30
 482 030c FF1F      		rol r31
 483 030e E20F      		add r30,r18
 484 0310 F31F      		adc r31,r19
 485 0312 EE0F      		lsl r30
 486 0314 FF1F      		rol r31
 487 0316 DF01      		movw r26,r30
 488 0318 A050      		subi r26,lo8(-(snake))
 489 031a B040      		sbci r27,hi8(-(snake))
 490 031c 8D91      		ld r24,X+
 491 031e 9C91      		ld r25,X
 492 0320 1197      		sbiw r26,1
 493 0322 9093 0000 		sts (head)+1,r25
 494 0326 8093 0000 		sts head,r24
 495               	.LM31:
 496 032a E050      		subi r30,lo8(-(snake+2))
 497 032c F040      		sbci r31,hi8(-(snake+2))
 498 032e 8081      		ld r24,Z
 499 0330 9181      		ldd r25,Z+1
 500 0332 9093 0000 		sts (head+2)+1,r25
 501 0336 8093 0000 		sts head+2,r24
 502               	.LM32:
 503 033a 1496      		adiw r26,4
 504 033c 8D91      		ld r24,X+
 505 033e 9C91      		ld r25,X
 506 0340 1597      		sbiw r26,4+1
 507 0342 00C0      		rjmp .L70
 508               	.LVL5:
 509               	.L6:
 510               	.LM33:
 511 0344 8091 0000 		lds r24,direction
 512 0348 9091 0000 		lds r25,(direction)+1
 513 034c 8230      		cpi r24,2
 514 034e 9105      		cpc r25,__zero_reg__
 515 0350 01F0      		breq .L30
 516 0352 8330      		cpi r24,3
 517 0354 9105      		cpc r25,__zero_reg__
 518 0356 04F4      		brge .L34
 519 0358 0097      		sbiw r24,0
 520 035a 01F0      		breq .L28
 521 035c 0197      		sbiw r24,1
 522 035e 01F0      		breq .+2
 523 0360 00C0      		rjmp .L27
 524 0362 00C0      		rjmp .L114
 525               	.L34:
 526 0364 8430      		cpi r24,4
 527 0366 9105      		cpc r25,__zero_reg__
 528 0368 01F0      		breq .L32
 529 036a 8430      		cpi r24,4
 530 036c 9105      		cpc r25,__zero_reg__
 531 036e 04F0      		brlt .L31
 532 0370 0597      		sbiw r24,5
 533 0372 01F0      		breq .+2
 534 0374 00C0      		rjmp .L27
 535 0376 00C0      		rjmp .L115
 536               	.L28:
 537               	.LM34:
 538 0378 E0E0      		ldi r30,lo8(snake)
 539 037a F0E0      		ldi r31,hi8(snake)
 540 037c 8081      		ld r24,Z
 541 037e 9181      		ldd r25,Z+1
 542 0380 0196      		adiw r24,1
 543 0382 00C0      		rjmp .L109
 544               	.L114:
 545               	.LM35:
 546 0384 E0E0      		ldi r30,lo8(snake)
 547 0386 F0E0      		ldi r31,hi8(snake)
 548 0388 8081      		ld r24,Z
 549 038a 9181      		ldd r25,Z+1
 550 038c 9183      		std Z+1,r25
 551 038e 8083      		st Z,r24
 552 0390 0197      		sbiw r24,1
 553               	.L109:
 554 0392 9183      		std Z+1,r25
 555 0394 8083      		st Z,r24
 556 0396 00C0      		rjmp .L104
 557               	.L30:
 558               	.LM36:
 559 0398 E0E0      		ldi r30,lo8(snake+2)
 560 039a F0E0      		ldi r31,hi8(snake+2)
 561 039c 8081      		ld r24,Z
 562 039e 9181      		ldd r25,Z+1
 563 03a0 9183      		std Z+1,r25
 564 03a2 8083      		st Z,r24
 565 03a4 0196      		adiw r24,1
 566 03a6 00C0      		rjmp .L111
 567               	.L31:
 568               	.LM37:
 569 03a8 E0E0      		ldi r30,lo8(snake+2)
 570 03aa F0E0      		ldi r31,hi8(snake+2)
 571 03ac 8081      		ld r24,Z
 572 03ae 9181      		ldd r25,Z+1
 573 03b0 9183      		std Z+1,r25
 574 03b2 8083      		st Z,r24
 575 03b4 0197      		sbiw r24,1
 576               	.L111:
 577 03b6 9183      		std Z+1,r25
 578 03b8 8083      		st Z,r24
 579               	.LM38:
 580 03ba E0E0      		ldi r30,lo8(snake)
 581 03bc F0E0      		ldi r31,hi8(snake)
 582 03be 00C0      		rjmp .L104
 583               	.L32:
 584               	.LM39:
 585 03c0 E0E0      		ldi r30,lo8(snake)
 586 03c2 F0E0      		ldi r31,hi8(snake)
 587 03c4 8481      		ldd r24,Z+4
 588 03c6 9581      		ldd r25,Z+5
 589 03c8 9583      		std Z+5,r25
 590 03ca 8483      		std Z+4,r24
 591 03cc 0196      		adiw r24,1
 592 03ce 00C0      		rjmp .L110
 593               	.L115:
 594               	.LM40:
 595 03d0 E0E0      		ldi r30,lo8(snake)
 596 03d2 F0E0      		ldi r31,hi8(snake)
 597 03d4 8481      		ldd r24,Z+4
 598 03d6 9581      		ldd r25,Z+5
 599 03d8 9583      		std Z+5,r25
 600 03da 8483      		std Z+4,r24
 601 03dc 0197      		sbiw r24,1
 602               	.L110:
 603 03de 9583      		std Z+5,r25
 604 03e0 8483      		std Z+4,r24
 605               	.L104:
 606               	.LM41:
 607 03e2 8081      		ld r24,Z
 608 03e4 9181      		ldd r25,Z+1
 609 03e6 0597      		sbiw r24,5
 610 03e8 04F0      		brlt .L60
 611 03ea 1182      		std Z+1,__zero_reg__
 612 03ec 1082      		st Z,__zero_reg__
 613               	.L60:
 614               	.LM42:
 615 03ee E0E0      		ldi r30,lo8(snake+2)
 616 03f0 F0E0      		ldi r31,hi8(snake+2)
 617 03f2 8081      		ld r24,Z
 618 03f4 9181      		ldd r25,Z+1
 619 03f6 0597      		sbiw r24,5
 620 03f8 04F0      		brlt .L61
 621 03fa 1182      		std Z+1,__zero_reg__
 622 03fc 1082      		st Z,__zero_reg__
 623               	.L61:
 624               	.LM43:
 625 03fe E0E0      		ldi r30,lo8(snake)
 626 0400 F0E0      		ldi r31,hi8(snake)
 627 0402 8481      		ldd r24,Z+4
 628 0404 9581      		ldd r25,Z+5
 629 0406 0597      		sbiw r24,5
 630 0408 04F0      		brlt .L62
 631 040a 1582      		std Z+5,__zero_reg__
 632 040c 1482      		std Z+4,__zero_reg__
 633               	.L62:
 634               	.LM44:
 635 040e E0E0      		ldi r30,lo8(snake)
 636 0410 F0E0      		ldi r31,hi8(snake)
 637 0412 8081      		ld r24,Z
 638 0414 9181      		ldd r25,Z+1
 639 0416 97FF      		sbrs r25,7
 640 0418 00C0      		rjmp .L63
 641 041a 84E0      		ldi r24,lo8(4)
 642 041c 90E0      		ldi r25,hi8(4)
 643 041e 9183      		std Z+1,r25
 644 0420 8083      		st Z,r24
 645               	.L63:
 646               	.LM45:
 647 0422 E0E0      		ldi r30,lo8(snake+2)
 648 0424 F0E0      		ldi r31,hi8(snake+2)
 649 0426 8081      		ld r24,Z
 650 0428 9181      		ldd r25,Z+1
 651 042a 97FF      		sbrs r25,7
 652 042c 00C0      		rjmp .L64
 653 042e 84E0      		ldi r24,lo8(4)
 654 0430 90E0      		ldi r25,hi8(4)
 655 0432 9183      		std Z+1,r25
 656 0434 8083      		st Z,r24
 657               	.L64:
 658               	.LM46:
 659 0436 E0E0      		ldi r30,lo8(snake)
 660 0438 F0E0      		ldi r31,hi8(snake)
 661 043a 8481      		ldd r24,Z+4
 662 043c 9581      		ldd r25,Z+5
 663 043e 97FF      		sbrs r25,7
 664 0440 00C0      		rjmp .L27
 665 0442 84E0      		ldi r24,lo8(4)
 666 0444 90E0      		ldi r25,hi8(4)
 667 0446 9583      		std Z+5,r25
 668 0448 8483      		std Z+4,r24
 669               	.L27:
 670               	.LM47:
 671 044a E0E0      		ldi r30,lo8(snake)
 672 044c F0E0      		ldi r31,hi8(snake)
 673 044e 8081      		ld r24,Z
 674 0450 9181      		ldd r25,Z+1
 675 0452 9093 0000 		sts (head)+1,r25
 676 0456 8093 0000 		sts head,r24
 677               	.LM48:
 678 045a 8091 0000 		lds r24,snake+2
 679 045e 9091 0000 		lds r25,(snake+2)+1
 680 0462 9093 0000 		sts (head+2)+1,r25
 681 0466 8093 0000 		sts head+2,r24
 682               	.LM49:
 683 046a 8481      		ldd r24,Z+4
 684 046c 9581      		ldd r25,Z+5
 685               	.LVL6:
 686               	.L70:
 687 046e 9093 0000 		sts (head+4)+1,r25
 688 0472 8093 0000 		sts head+4,r24
 689               	/* epilogue start */
 690               	.LM50:
 691 0476 DF91      		pop r29
 692 0478 CF91      		pop r28
 693 047a 1F91      		pop r17
 694 047c 0895      		ret
 695               	.LFE9:
 697               	.global	directionHandler
 699               	directionHandler:
 700               	.LFB10:
 701               	.LM51:
 702               	.LVL7:
 703               	/* prologue: function */
 704               	/* frame size = 0 */
 705               	.LM52:
 706 047e 0E94 0000 		call snakeMove
 707               	.LVL8:
 708               	/* epilogue start */
 709               	.LM53:
 710 0482 0895      		ret
 711               	.LFE10:
 713               	.global	enlarge
 715               	enlarge:
 716               	.LFB12:
 717               	.LM54:
 718               	.LVL9:
 719 0484 0F93      		push r16
 720 0486 1F93      		push r17
 721 0488 CF93      		push r28
 722 048a DF93      		push r29
 723               	/* prologue: function */
 724               	/* frame size = 0 */
 725 048c 8C01      		movw r16,r24
 726               	.LM55:
 727 048e 20E0      		ldi r18,lo8(0)
 728 0490 30E0      		ldi r19,hi8(0)
 729               	.LVL10:
 730               	.L120:
 731               	.LM56:
 732 0492 F901      		movw r30,r18
 733 0494 EE0F      		lsl r30
 734 0496 FF1F      		rol r31
 735 0498 E20F      		add r30,r18
 736 049a F31F      		adc r31,r19
 737 049c EE0F      		lsl r30
 738 049e FF1F      		rol r31
 739 04a0 E050      		subi r30,lo8(-(snake))
 740 04a2 F040      		sbci r31,hi8(-(snake))
 741 04a4 8081      		ld r24,Z
 742 04a6 9181      		ldd r25,Z+1
 743 04a8 8F5F      		subi r24,lo8(-1)
 744 04aa 9F4F      		sbci r25,hi8(-1)
 745 04ac 01F4      		brne .L119
 746               	.LM57:
 747 04ae 2F5F      		subi r18,lo8(-(1))
 748 04b0 3F4F      		sbci r19,hi8(-(1))
 749 04b2 2E31      		cpi r18,30
 750 04b4 3105      		cpc r19,__zero_reg__
 751 04b6 01F4      		brne .L120
 752               	.L119:
 753               	.LM58:
 754 04b8 C901      		movw r24,r18
 755 04ba 0197      		sbiw r24,1
 756 04bc D901      		movw r26,r18
 757 04be AA0F      		lsl r26
 758 04c0 BB1F      		rol r27
 759 04c2 A20F      		add r26,r18
 760 04c4 B31F      		adc r27,r19
 761 04c6 AA0F      		lsl r26
 762 04c8 BB1F      		rol r27
 763 04ca 9D01      		movw r18,r26
 764               	.LVL11:
 765 04cc 2050      		subi r18,lo8(-(snake))
 766 04ce 3040      		sbci r19,hi8(-(snake))
 767 04d0 E901      		movw r28,r18
 768 04d2 4881      		ld r20,Y
 769 04d4 5981      		ldd r21,Y+1
 770 04d6 FC01      		movw r30,r24
 771 04d8 EE0F      		lsl r30
 772 04da FF1F      		rol r31
 773 04dc E80F      		add r30,r24
 774 04de F91F      		adc r31,r25
 775 04e0 EE0F      		lsl r30
 776 04e2 FF1F      		rol r31
 777 04e4 BF01      		movw r22,r30
 778 04e6 6050      		subi r22,lo8(-(snake))
 779 04e8 7040      		sbci r23,hi8(-(snake))
 780 04ea EB01      		movw r28,r22
 781 04ec 5983      		std Y+1,r21
 782 04ee 4883      		st Y,r20
 783               	.LM59:
 784 04f0 A050      		subi r26,lo8(-(snake+2))
 785 04f2 B040      		sbci r27,hi8(-(snake+2))
 786 04f4 8D91      		ld r24,X+
 787 04f6 9C91      		ld r25,X
 788 04f8 1197      		sbiw r26,1
 789 04fa E050      		subi r30,lo8(-(snake+2))
 790 04fc F040      		sbci r31,hi8(-(snake+2))
 791 04fe 9183      		std Z+1,r25
 792 0500 8083      		st Z,r24
 793               	.LM60:
 794 0502 F901      		movw r30,r18
 795 0504 8481      		ldd r24,Z+4
 796 0506 9581      		ldd r25,Z+5
 797 0508 9D83      		std Y+5,r25
 798 050a 8C83      		std Y+4,r24
 799               	.LM61:
 800 050c E801      		movw r28,r16
 801 050e 8881      		ld r24,Y
 802 0510 9981      		ldd r25,Y+1
 803 0512 9183      		std Z+1,r25
 804 0514 8083      		st Z,r24
 805               	.LM62:
 806 0516 8A81      		ldd r24,Y+2
 807 0518 9B81      		ldd r25,Y+3
 808 051a 1196      		adiw r26,1
 809 051c 9C93      		st X,r25
 810 051e 8E93      		st -X,r24
 811               	.LM63:
 812 0520 8C81      		ldd r24,Y+4
 813 0522 9D81      		ldd r25,Y+5
 814 0524 9583      		std Z+5,r25
 815 0526 8483      		std Z+4,r24
 816               	/* epilogue start */
 817               	.LM64:
 818 0528 DF91      		pop r29
 819 052a CF91      		pop r28
 820 052c 1F91      		pop r17
 821 052e 0F91      		pop r16
 822               	.LVL12:
 823 0530 0895      		ret
 824               	.LFE12:
 826               	.global	delay_ms
 828               	delay_ms:
 829               	.LFB16:
 830               	.LM65:
 831               	.LVL13:
 832               	/* prologue: function */
 833               	/* frame size = 0 */
 834               	.LM66:
 835 0532 20E0      		ldi r18,lo8(0)
 836 0534 30E0      		ldi r19,hi8(0)
 837               	.LVL14:
 838               	.LBB48:
 839               	.LBB49:
 840               	.LBB50:
 841               	.LBB51:
 842               	.LM67:
 843 0536 40EA      		ldi r20,lo8(4000)
 844 0538 5FE0      		ldi r21,hi8(4000)
 845 053a 00C0      		rjmp .L124
 846               	.LVL15:
 847               	.L125:
 848 053c FA01      		movw r30,r20
 849               	/* #APP */
 850               	 ;  105 "c:/winavr-20081205/lib/gcc/../../avr/include/util/delay_basic.h" 1
 851 053e 3197      		1: sbiw r30,1
 852 0540 01F4      		brne 1b
 853               	 ;  0 "" 2
 854               	/* #NOAPP */
 855               	.LBE51:
 856               	.LBE50:
 857               	.LBE49:
 858               	.LBE48:
 859               	.LM68:
 860 0542 2F5F      		subi r18,lo8(-(1))
 861 0544 3F4F      		sbci r19,hi8(-(1))
 862               	.L124:
 863 0546 2817      		cp r18,r24
 864 0548 3907      		cpc r19,r25
 865 054a 04F0      		brlt .L125
 866               	/* epilogue start */
 867               	.LM69:
 868 054c 0895      		ret
 869               	.LFE16:
 871               	.global	cube_ini
 873               	cube_ini:
 874               	.LFB17:
 875               	.LM70:
 876               	/* prologue: function */
 877               	/* frame size = 0 */
 878               	.LM71:
 879 054e 8FEF      		ldi r24,lo8(-1)
 880 0550 8ABB      		out 58-32,r24
 881               	.LM72:
 882 0552 17BA      		out 55-32,__zero_reg__
 883               	.LM73:
 884 0554 84BB      		out 52-32,r24
 885               	.LM74:
 886 0556 81BB      		out 49-32,r24
 887               	.LM75:
 888 0558 1BBA      		out 59-32,__zero_reg__
 889               	.LM76:
 890 055a 15BA      		out 53-32,__zero_reg__
 891               	.LM77:
 892 055c 12BA      		out 50-32,__zero_reg__
 893               	.LM78:
 894 055e C29A      		sbi 56-32,2
 895               	.LM79:
 896 0560 9798      		cbi 50-32,7
 897               	.LM80:
 898 0562 41E0      		ldi r20,lo8(1)
 899 0564 4093 0000 		sts _X_,r20
 900               	.LM81:
 901 0568 32E0      		ldi r19,lo8(2)
 902 056a 3093 0000 		sts _X_+1,r19
 903               	.LM82:
 904 056e 24E0      		ldi r18,lo8(4)
 905 0570 2093 0000 		sts _X_+2,r18
 906               	.LM83:
 907 0574 98E0      		ldi r25,lo8(8)
 908 0576 9093 0000 		sts _X_+3,r25
 909               	.LM84:
 910 057a 80E1      		ldi r24,lo8(16)
 911 057c 8093 0000 		sts _X_+4,r24
 912               	.LM85:
 913 0580 8093 0000 		sts _Y_,r24
 914               	.LM86:
 915 0584 9093 0000 		sts _Y_+1,r25
 916               	.LM87:
 917 0588 2093 0000 		sts _Y_+2,r18
 918               	.LM88:
 919 058c 3093 0000 		sts _Y_+3,r19
 920               	.LM89:
 921 0590 4093 0000 		sts _Y_+4,r20
 922               	.LM90:
 923 0594 2093 0000 		sts _Z_,r18
 924               	.LM91:
 925 0598 9093 0000 		sts _Z_+1,r25
 926               	.LM92:
 927 059c 8093 0000 		sts _Z_+2,r24
 928               	.LM93:
 929 05a0 80E2      		ldi r24,lo8(32)
 930 05a2 8093 0000 		sts _Z_+3,r24
 931               	.LM94:
 932 05a6 80E4      		ldi r24,lo8(64)
 933 05a8 8093 0000 		sts _Z_+4,r24
 934               	.LM95:
 935 05ac 12BE      		out 82-32,__zero_reg__
 936               	.LM96:
 937 05ae 89B7      		in r24,89-32
 938 05b0 8260      		ori r24,lo8(2)
 939 05b2 89BF      		out 89-32,r24
 940               	.LM97:
 941 05b4 8AE0      		ldi r24,lo8(10)
 942 05b6 8CBF      		out 92-32,r24
 943               	.LM98:
 944 05b8 83B7      		in r24,83-32
 945 05ba 8460      		ori r24,lo8(4)
 946 05bc 83BF      		out 83-32,r24
 947               	.LM99:
 948 05be 83B7      		in r24,83-32
 949 05c0 8860      		ori r24,lo8(8)
 950 05c2 83BF      		out 83-32,r24
 951               	.LM100:
 952 05c4 8BB7      		in r24,91-32
 953 05c6 8062      		ori r24,lo8(32)
 954 05c8 8BBF      		out 91-32,r24
 955               	.LM101:
 956 05ca 84B7      		in r24,84-32
 957 05cc 8F7B      		andi r24,lo8(-65)
 958 05ce 84BF      		out 84-32,r24
 959               	.LM102:
 960               	/* #APP */
 961               	 ;  109 "main.c" 1
 962 05d0 7894      		sei
 963               	 ;  0 "" 2
 964               	/* epilogue start */
 965               	.LM103:
 966               	/* #NOAPP */
 967 05d2 0895      		ret
 968               	.LFE17:
 970               	.global	__vector_10
 972               	__vector_10:
 973               	.LFB18:
 974               	.LM104:
 975 05d4 1F92      		push __zero_reg__
 976 05d6 0F92      		push r0
 977 05d8 0FB6      		in r0,__SREG__
 978 05da 0F92      		push r0
 979 05dc 1124      		clr __zero_reg__
 980 05de 2F93      		push r18
 981 05e0 8F93      		push r24
 982 05e2 9F93      		push r25
 983 05e4 EF93      		push r30
 984 05e6 FF93      		push r31
 985               	/* prologue: Signal */
 986               	/* frame size = 0 */
 987               	.LM105:
 988 05e8 E091 0000 		lds r30,current_layer
 989 05ec F0E0      		ldi r31,lo8(0)
 990 05ee E050      		subi r30,lo8(-(_Z_))
 991 05f0 F040      		sbci r31,hi8(-(_Z_))
 992 05f2 8081      		ld r24,Z
 993 05f4 82BB      		out 50-32,r24
 994               	.LM106:
 995 05f6 1092 0000 		sts current_Yrow,__zero_reg__
 996 05fa 00C0      		rjmp .L130
 997               	.L131:
 998               	.LM107:
 999 05fc 8091 0000 		lds r24,current_layer
 1000 0600 90E0      		ldi r25,lo8(0)
 1001 0602 2091 0000 		lds r18,current_Yrow
 1002 0606 FC01      		movw r30,r24
 1003 0608 EE0F      		lsl r30
 1004 060a FF1F      		rol r31
 1005 060c EE0F      		lsl r30
 1006 060e FF1F      		rol r31
 1007 0610 E80F      		add r30,r24
 1008 0612 F91F      		adc r31,r25
 1009 0614 E20F      		add r30,r18
 1010 0616 F11D      		adc r31,__zero_reg__
 1011 0618 E050      		subi r30,lo8(-(cube))
 1012 061a F040      		sbci r31,hi8(-(cube))
 1013 061c 8081      		ld r24,Z
 1014 061e 8BBB      		out 59-32,r24
 1015               	.LM108:
 1016 0620 E091 0000 		lds r30,current_Yrow
 1017 0624 F0E0      		ldi r31,lo8(0)
 1018 0626 E050      		subi r30,lo8(-(_Y_))
 1019 0628 F040      		sbci r31,hi8(-(_Y_))
 1020 062a 8081      		ld r24,Z
 1021 062c 85BB      		out 53-32,r24
 1022               	.LM109:
 1023 062e 8091 0000 		lds r24,current_Yrow
 1024 0632 8F5F      		subi r24,lo8(-(1))
 1025 0634 8093 0000 		sts current_Yrow,r24
 1026               	.L130:
 1027 0638 8091 0000 		lds r24,current_Yrow
 1028 063c 8530      		cpi r24,lo8(5)
 1029 063e 00F0      		brlo .L131
 1030               	.LM110:
 1031 0640 8091 0000 		lds r24,current_layer
 1032 0644 8F5F      		subi r24,lo8(-(1))
 1033 0646 8093 0000 		sts current_layer,r24
 1034 064a 8150      		subi r24,lo8(-(-1))
 1035 064c 8430      		cpi r24,lo8(4)
 1036 064e 01F4      		brne .L133
 1037 0650 1092 0000 		sts current_layer,__zero_reg__
 1038               	.L133:
 1039               	/* epilogue start */
 1040               	.LM111:
 1041 0654 FF91      		pop r31
 1042 0656 EF91      		pop r30
 1043 0658 9F91      		pop r25
 1044 065a 8F91      		pop r24
 1045 065c 2F91      		pop r18
 1046 065e 0F90      		pop r0
 1047 0660 0FBE      		out __SREG__,r0
 1048 0662 0F90      		pop r0
 1049 0664 1F90      		pop __zero_reg__
 1050 0666 1895      		reti
 1051               	.LFE18:
 1053               	.global	__vector_3
 1055               	__vector_3:
 1056               	.LFB19:
 1057               	.LM112:
 1058 0668 1F92      		push __zero_reg__
 1059 066a 0F92      		push r0
 1060 066c 0FB6      		in r0,__SREG__
 1061 066e 0F92      		push r0
 1062 0670 1124      		clr __zero_reg__
 1063 0672 8F93      		push r24
 1064 0674 9F93      		push r25
 1065               	/* prologue: Signal */
 1066               	/* frame size = 0 */
 1067               	.LM113:
 1068 0676 8091 0000 		lds r24,direction
 1069 067a 9091 0000 		lds r25,(direction)+1
 1070 067e 0196      		adiw r24,1
 1071 0680 9093 0000 		sts (direction)+1,r25
 1072 0684 8093 0000 		sts direction,r24
 1073 0688 0197      		sbiw r24,1
 1074 068a 0597      		sbiw r24,5
 1075 068c 01F4      		brne .L136
 1076 068e 1092 0000 		sts (direction)+1,__zero_reg__
 1077 0692 1092 0000 		sts direction,__zero_reg__
 1078               	.L136:
 1079               	/* epilogue start */
 1080               	.LM114:
 1081 0696 9F91      		pop r25
 1082 0698 8F91      		pop r24
 1083 069a 0F90      		pop r0
 1084 069c 0FBE      		out __SREG__,r0
 1085 069e 0F90      		pop r0
 1086 06a0 1F90      		pop __zero_reg__
 1087 06a2 1895      		reti
 1088               	.LFE19:
 1090               	.global	check
 1092               	check:
 1093               	.LFB21:
 1094               	.LM115:
 1095               	/* prologue: function */
 1096               	/* frame size = 0 */
 1097               	.LM116:
 1098 06a4 8091 0000 		lds r24,direction
 1099 06a8 9091 0000 		lds r25,(direction)+1
 1100 06ac 8130      		cpi r24,1
 1101 06ae 9105      		cpc r25,__zero_reg__
 1102 06b0 01F0      		breq .L140
 1103 06b2 8230      		cpi r24,2
 1104 06b4 9105      		cpc r25,__zero_reg__
 1105 06b6 01F0      		breq .L141
 1106 06b8 892B      		or r24,r25
 1107 06ba 01F4      		brne .L146
 1108               	.L139:
 1109               	.LM117:
 1110 06bc 80E0      		ldi r24,lo8(0)
 1111 06be 90E0      		ldi r25,hi8(0)
 1112 06c0 60E0      		ldi r22,lo8(0)
 1113 06c2 70E0      		ldi r23,hi8(0)
 1114 06c4 00C0      		rjmp .L148
 1115               	.L140:
 1116               	.LM118:
 1117 06c6 80E0      		ldi r24,lo8(0)
 1118 06c8 90E0      		ldi r25,hi8(0)
 1119 06ca 64E0      		ldi r22,lo8(4)
 1120 06cc 70E0      		ldi r23,hi8(4)
 1121               	.L148:
 1122 06ce 40E0      		ldi r20,lo8(0)
 1123 06d0 50E0      		ldi r21,hi8(0)
 1124 06d2 00C0      		rjmp .L147
 1125               	.L141:
 1126               	.LM119:
 1127 06d4 80E0      		ldi r24,lo8(0)
 1128 06d6 90E0      		ldi r25,hi8(0)
 1129 06d8 60E0      		ldi r22,lo8(0)
 1130 06da 70E0      		ldi r23,hi8(0)
 1131 06dc 44E0      		ldi r20,lo8(4)
 1132 06de 50E0      		ldi r21,hi8(4)
 1133               	.L147:
 1134 06e0 0E94 0000 		call setLED
 1135               	.L146:
 1136 06e4 80E0      		ldi r24,lo8(0)
 1137 06e6 90E0      		ldi r25,hi8(0)
 1138               	.LVL16:
 1139               	.LBB52:
 1140               	.LBB53:
 1141               	.LBB54:
 1142               	.LBB55:
 1143               	.LBB56:
 1144               	.LBB57:
 1145               	.LM120:
 1146 06e8 20EA      		ldi r18,lo8(4000)
 1147 06ea 3FE0      		ldi r19,hi8(4000)
 1148               	.L144:
 1149 06ec F901      		movw r30,r18
 1150               	.LVL17:
 1151               	/* #APP */
 1152               	 ;  105 "c:/winavr-20081205/lib/gcc/../../avr/include/util/delay_basic.h" 1
 1153 06ee 3197      		1: sbiw r30,1
 1154 06f0 01F4      		brne 1b
 1155               	 ;  0 "" 2
 1156               	/* #NOAPP */
 1157               	.LBE57:
 1158               	.LBE56:
 1159               	.LBE55:
 1160               	.LBE54:
 1161               	.LM121:
 1162 06f2 0196      		adiw r24,1
 1163 06f4 8233      		cpi r24,50
 1164 06f6 9105      		cpc r25,__zero_reg__
 1165 06f8 01F4      		brne .L144
 1166               	/* epilogue start */
 1167               	.LBE53:
 1168               	.LBE52:
 1169               	.LM122:
 1170 06fa 0895      		ret
 1171               	.LFE21:
 1173               	.global	displaySnake
 1175               	displaySnake:
 1176               	.LFB8:
 1177               	.LM123:
 1178 06fc EF92      		push r14
 1179 06fe FF92      		push r15
 1180 0700 0F93      		push r16
 1181 0702 1F93      		push r17
 1182 0704 CF93      		push r28
 1183 0706 DF93      		push r29
 1184               	/* prologue: function */
 1185               	/* frame size = 0 */
 1186               	.LM124:
 1187 0708 EE24      		clr r14
 1188 070a FF24      		clr r15
 1189               	.LVL18:
 1190 070c 00C0      		rjmp .L150
 1191               	.L159:
 1192 070e 82E0      		ldi r24,lo8(2)
 1193 0710 90E0      		ldi r25,hi8(2)
 1194               	.LVL19:
 1195 0712 00C0      		rjmp .L151
 1196               	.LVL20:
 1197               	.L158:
 1198               	.LM125:
 1199 0714 F801      		movw r30,r16
 1200 0716 8081      		ld r24,Z
 1201 0718 9181      		ldd r25,Z+1
 1202 071a 6881      		ld r22,Y
 1203 071c 7981      		ldd r23,Y+1
 1204 071e 4481      		ldd r20,Z+4
 1205 0720 5581      		ldd r21,Z+5
 1206 0722 0E94 0000 		call setLED
 1207 0726 83E0      		ldi r24,lo8(3)
 1208 0728 90E0      		ldi r25,hi8(3)
 1209               	.LVL21:
 1210               	.L151:
 1211               	.LM126:
 1212 072a F701      		movw r30,r14
 1213 072c EE0F      		lsl r30
 1214 072e FF1F      		rol r31
 1215 0730 EE0D      		add r30,r14
 1216 0732 FF1D      		adc r31,r15
 1217 0734 E80F      		add r30,r24
 1218 0736 F91F      		adc r31,r25
 1219 0738 EE0F      		lsl r30
 1220 073a FF1F      		rol r31
 1221 073c E050      		subi r30,lo8(-(snake))
 1222 073e F040      		sbci r31,hi8(-(snake))
 1223 0740 8081      		ld r24,Z
 1224 0742 9181      		ldd r25,Z+1
 1225               	.LVL22:
 1226 0744 8F5F      		subi r24,lo8(-1)
 1227 0746 9F4F      		sbci r25,hi8(-1)
 1228 0748 01F4      		brne .+2
 1229 074a 00C0      		rjmp .L157
 1230               	.LM127:
 1231 074c 0894      		sec
 1232 074e E11C      		adc r14,__zero_reg__
 1233 0750 F11C      		adc r15,__zero_reg__
 1234 0752 2EE1      		ldi r18,lo8(30)
 1235 0754 E216      		cp r14,r18
 1236 0756 F104      		cpc r15,__zero_reg__
 1237 0758 01F0      		breq .L157
 1238               	.L150:
 1239               	.LM128:
 1240 075a B701      		movw r22,r14
 1241 075c 660F      		lsl r22
 1242 075e 771F      		rol r23
 1243 0760 6E0D      		add r22,r14
 1244 0762 7F1D      		adc r23,r15
 1245 0764 8B01      		movw r16,r22
 1246 0766 000F      		lsl r16
 1247 0768 111F      		rol r17
 1248 076a 0050      		subi r16,lo8(-(snake))
 1249 076c 1040      		sbci r17,hi8(-(snake))
 1250 076e F801      		movw r30,r16
 1251 0770 8081      		ld r24,Z
 1252 0772 9181      		ldd r25,Z+1
 1253 0774 8F5F      		subi r24,lo8(-1)
 1254 0776 9F4F      		sbci r25,hi8(-1)
 1255 0778 01F4      		brne .L153
 1256 077a 80E0      		ldi r24,lo8(0)
 1257 077c 90E0      		ldi r25,hi8(0)
 1258               	.LVL23:
 1259 077e 00C0      		rjmp .L151
 1260               	.LVL24:
 1261               	.L153:
 1262               	.LM129:
 1263 0780 F801      		movw r30,r16
 1264 0782 8081      		ld r24,Z
 1265 0784 9181      		ldd r25,Z+1
 1266 0786 EB01      		movw r28,r22
 1267 0788 CC0F      		lsl r28
 1268 078a DD1F      		rol r29
 1269 078c C050      		subi r28,lo8(-(snake+2))
 1270 078e D040      		sbci r29,hi8(-(snake+2))
 1271 0790 6881      		ld r22,Y
 1272 0792 7981      		ldd r23,Y+1
 1273 0794 4481      		ldd r20,Z+4
 1274 0796 5581      		ldd r21,Z+5
 1275 0798 0E94 0000 		call setLED
 1276               	.LM130:
 1277 079c 8881      		ld r24,Y
 1278 079e 9981      		ldd r25,Y+1
 1279 07a0 8F5F      		subi r24,lo8(-1)
 1280 07a2 9F4F      		sbci r25,hi8(-1)
 1281 07a4 01F4      		brne .L154
 1282 07a6 81E0      		ldi r24,lo8(1)
 1283 07a8 90E0      		ldi r25,hi8(1)
 1284               	.LVL25:
 1285 07aa 00C0      		rjmp .L151
 1286               	.LVL26:
 1287               	.L154:
 1288               	.LM131:
 1289 07ac F801      		movw r30,r16
 1290 07ae 8081      		ld r24,Z
 1291 07b0 9181      		ldd r25,Z+1
 1292 07b2 6881      		ld r22,Y
 1293 07b4 7981      		ldd r23,Y+1
 1294 07b6 4481      		ldd r20,Z+4
 1295 07b8 5581      		ldd r21,Z+5
 1296 07ba 0E94 0000 		call setLED
 1297               	.LM132:
 1298 07be F801      		movw r30,r16
 1299 07c0 8481      		ldd r24,Z+4
 1300 07c2 9581      		ldd r25,Z+5
 1301 07c4 8F5F      		subi r24,lo8(-1)
 1302 07c6 9F4F      		sbci r25,hi8(-1)
 1303 07c8 01F0      		breq .+2
 1304 07ca 00C0      		rjmp .L158
 1305 07cc 00C0      		rjmp .L159
 1306               	.L157:
 1307               	/* epilogue start */
 1308               	.LM133:
 1309 07ce DF91      		pop r29
 1310 07d0 CF91      		pop r28
 1311 07d2 1F91      		pop r17
 1312 07d4 0F91      		pop r16
 1313 07d6 FF90      		pop r15
 1314 07d8 EF90      		pop r14
 1315               	.LVL27:
 1316 07da 0895      		ret
 1317               	.LFE8:
 1319               	.global	boot_check
 1321               	boot_check:
 1322               	.LFB20:
 1323               	.LM134:
 1324               	.LVL28:
 1325 07dc EF92      		push r14
 1326 07de FF92      		push r15
 1327 07e0 0F93      		push r16
 1328 07e2 1F93      		push r17
 1329 07e4 CF93      		push r28
 1330 07e6 DF93      		push r29
 1331               	/* prologue: function */
 1332               	/* frame size = 0 */
 1333 07e8 8C01      		movw r16,r24
 1334               	.LM135:
 1335 07ea C0E0      		ldi r28,lo8(0)
 1336 07ec D0E0      		ldi r29,hi8(0)
 1337               	.LVL29:
 1338               	.LBB58:
 1339               	.LBB59:
 1340               	.LBB60:
 1341               	.LBB61:
 1342               	.LBB62:
 1343               	.LBB63:
 1344               	.LM136:
 1345 07ee 70EA      		ldi r23,lo8(4000)
 1346 07f0 E72E      		mov r14,r23
 1347 07f2 7FE0      		ldi r23,hi8(4000)
 1348 07f4 F72E      		mov r15,r23
 1349               	.LVL30:
 1350               	.L165:
 1351               	.LBE63:
 1352               	.LBE62:
 1353               	.LBE61:
 1354               	.LBE60:
 1355               	.LBE59:
 1356               	.LBE58:
 1357               	.LM137:
 1358 07f6 8FE1      		ldi r24,lo8(31)
 1359               	.LVL31:
 1360 07f8 0E94 0000 		call fill
 1361               	.LVL32:
 1362 07fc 80E0      		ldi r24,lo8(0)
 1363 07fe 90E0      		ldi r25,hi8(0)
 1364               	.LVL33:
 1365 0800 00C0      		rjmp .L161
 1366               	.LVL34:
 1367               	.L162:
 1368               	.LBB69:
 1369               	.LBB68:
 1370               	.LBB67:
 1371               	.LBB66:
 1372               	.LBB65:
 1373               	.LBB64:
 1374               	.LM138:
 1375 0802 F701      		movw r30,r14
 1376               	/* #APP */
 1377               	 ;  105 "c:/winavr-20081205/lib/gcc/../../avr/include/util/delay_basic.h" 1
 1378 0804 3197      		1: sbiw r30,1
 1379 0806 01F4      		brne 1b
 1380               	 ;  0 "" 2
 1381               	/* #NOAPP */
 1382               	.LBE64:
 1383               	.LBE65:
 1384               	.LBE66:
 1385               	.LBE67:
 1386               	.LM139:
 1387 0808 0196      		adiw r24,1
 1388               	.L161:
 1389 080a 8017      		cp r24,r16
 1390 080c 9107      		cpc r25,r17
 1391 080e 04F0      		brlt .L162
 1392               	.LBE68:
 1393               	.LBE69:
 1394               	.LM140:
 1395 0810 80E0      		ldi r24,lo8(0)
 1396               	.LVL35:
 1397 0812 0E94 0000 		call fill
 1398               	.LVL36:
 1399 0816 80E0      		ldi r24,lo8(0)
 1400 0818 90E0      		ldi r25,hi8(0)
 1401               	.LVL37:
 1402 081a 00C0      		rjmp .L163
 1403               	.LVL38:
 1404               	.L164:
 1405               	.LBB70:
 1406               	.LBB71:
 1407               	.LBB72:
 1408               	.LBB73:
 1409               	.LBB74:
 1410               	.LBB75:
 1411               	.LM141:
 1412 081c F701      		movw r30,r14
 1413               	/* #APP */
 1414               	 ;  105 "c:/winavr-20081205/lib/gcc/../../avr/include/util/delay_basic.h" 1
 1415 081e 3197      		1: sbiw r30,1
 1416 0820 01F4      		brne 1b
 1417               	 ;  0 "" 2
 1418               	/* #NOAPP */
 1419               	.LBE75:
 1420               	.LBE74:
 1421               	.LBE73:
 1422               	.LBE72:
 1423               	.LM142:
 1424 0822 0196      		adiw r24,1
 1425               	.L163:
 1426 0824 8017      		cp r24,r16
 1427 0826 9107      		cpc r25,r17
 1428 0828 04F0      		brlt .L164
 1429               	.LBE71:
 1430               	.LBE70:
 1431               	.LM143:
 1432 082a 2196      		adiw r28,1
 1433 082c C430      		cpi r28,4
 1434 082e D105      		cpc r29,__zero_reg__
 1435 0830 01F4      		brne .L165
 1436               	/* epilogue start */
 1437               	.LM144:
 1438 0832 DF91      		pop r29
 1439 0834 CF91      		pop r28
 1440               	.LVL39:
 1441 0836 1F91      		pop r17
 1442 0838 0F91      		pop r16
 1443               	.LVL40:
 1444 083a FF90      		pop r15
 1445 083c EF90      		pop r14
 1446 083e 0895      		ret
 1447               	.LFE20:
 1449               	.global	generateFruitPlace
 1451               	generateFruitPlace:
 1452               	.LFB13:
 1453               	.LM145:
 1454 0840 CF92      		push r12
 1455 0842 DF92      		push r13
 1456 0844 EF92      		push r14
 1457 0846 FF92      		push r15
 1458 0848 0F93      		push r16
 1459 084a 1F93      		push r17
 1460               	/* prologue: function */
 1461               	/* frame size = 0 */
 1462               	.L169:
 1463               	.LM146:
 1464 084c 0E94 0000 		call rand
 1465 0850 65E0      		ldi r22,lo8(5)
 1466 0852 70E0      		ldi r23,hi8(5)
 1467 0854 0E94 0000 		call __divmodhi4
 1468 0858 D82E      		mov r13,r24
 1469 085a C92E      		mov r12,r25
 1470               	.LM147:
 1471 085c 0E94 0000 		call rand
 1472 0860 65E0      		ldi r22,lo8(5)
 1473 0862 70E0      		ldi r23,hi8(5)
 1474 0864 0E94 0000 		call __divmodhi4
 1475 0868 F82E      		mov r15,r24
 1476 086a E92E      		mov r14,r25
 1477               	.LM148:
 1478 086c 0E94 0000 		call rand
 1479 0870 65E0      		ldi r22,lo8(5)
 1480 0872 70E0      		ldi r23,hi8(5)
 1481 0874 0E94 0000 		call __divmodhi4
 1482 0878 182F      		mov r17,r24
 1483 087a 092F      		mov r16,r25
 1484               	.LM149:
 1485 087c 8D2D      		mov r24,r13
 1486 087e 9C2D      		mov r25,r12
 1487 0880 6F2D      		mov r22,r15
 1488 0882 7E2D      		mov r23,r14
 1489 0884 412F      		mov r20,r17
 1490 0886 502F      		mov r21,r16
 1491 0888 0E94 0000 		call getLED
 1492 088c 8130      		cpi r24,lo8(1)
 1493 088e 01F0      		breq .L169
 1494               	.LM150:
 1495 0890 E0E0      		ldi r30,lo8(fruit)
 1496 0892 F0E0      		ldi r31,hi8(fruit)
 1497 0894 D092 0000 		sts fruit,r13
 1498 0898 C092 0000 		sts fruit+1,r12
 1499               	.LM151:
 1500 089c F092 0000 		sts fruit+2,r15
 1501 08a0 E382      		std Z+3,r14
 1502               	.LM152:
 1503 08a2 1093 0000 		sts fruit+4,r17
 1504 08a6 0583      		std Z+5,r16
 1505               	.LM153:
 1506 08a8 8D2D      		mov r24,r13
 1507 08aa 9C2D      		mov r25,r12
 1508 08ac 6F2D      		mov r22,r15
 1509 08ae 7E2D      		mov r23,r14
 1510 08b0 412F      		mov r20,r17
 1511 08b2 502F      		mov r21,r16
 1512 08b4 0E94 0000 		call setLED
 1513               	/* epilogue start */
 1514               	.LM154:
 1515 08b8 1F91      		pop r17
 1516 08ba 0F91      		pop r16
 1517 08bc FF90      		pop r15
 1518 08be EF90      		pop r14
 1519 08c0 DF90      		pop r13
 1520 08c2 CF90      		pop r12
 1521 08c4 0895      		ret
 1522               	.LFE13:
 1524               	.global	fruitHandler
 1526               	fruitHandler:
 1527               	.LFB11:
 1528               	.LM155:
 1529               	.LVL41:
 1530               	/* prologue: function */
 1531               	/* frame size = 0 */
 1532 08c6 FB01      		movw r30,r22
 1533               	.LM156:
 1534 08c8 2091 0000 		lds r18,head
 1535 08cc 3091 0000 		lds r19,(head)+1
 1536 08d0 8081      		ld r24,Z
 1537 08d2 9181      		ldd r25,Z+1
 1538               	.LVL42:
 1539 08d4 2817      		cp r18,r24
 1540 08d6 3907      		cpc r19,r25
 1541 08d8 01F4      		brne .L174
 1542               	.LVL43:
 1543 08da 2091 0000 		lds r18,head+2
 1544 08de 3091 0000 		lds r19,(head+2)+1
 1545 08e2 8281      		ldd r24,Z+2
 1546 08e4 9381      		ldd r25,Z+3
 1547 08e6 2817      		cp r18,r24
 1548 08e8 3907      		cpc r19,r25
 1549 08ea 01F4      		brne .L174
 1550 08ec 2091 0000 		lds r18,head+4
 1551 08f0 3091 0000 		lds r19,(head+4)+1
 1552 08f4 8481      		ldd r24,Z+4
 1553 08f6 9581      		ldd r25,Z+5
 1554 08f8 2817      		cp r18,r24
 1555 08fa 3907      		cpc r19,r25
 1556 08fc 01F4      		brne .L174
 1557               	.LM157:
 1558 08fe 0E94 0000 		call matrix
 1559               	.LVL44:
 1560               	.LM158:
 1561 0902 0E94 0000 		call generateFruitPlace
 1562               	.LM159:
 1563 0906 80E0      		ldi r24,lo8(head)
 1564 0908 90E0      		ldi r25,hi8(head)
 1565 090a 0E94 0000 		call enlarge
 1566               	.LVL45:
 1567               	.L174:
 1568 090e 0895      		ret
 1569               	.LFE11:
 1571               	.global	start
 1573               	start:
 1574               	.LFB14:
 1575               	.LM160:
 1576 0910 CF93      		push r28
 1577 0912 DF93      		push r29
 1578               	/* prologue: function */
 1579               	/* frame size = 0 */
 1580               	.LM161:
 1581 0914 1092 0000 		sts (position)+1,__zero_reg__
 1582 0918 1092 0000 		sts position,__zero_reg__
 1583               	.LM162:
 1584 091c 1092 0000 		sts (position+2)+1,__zero_reg__
 1585 0920 1092 0000 		sts position+2,__zero_reg__
 1586               	.LM163:
 1587 0924 1092 0000 		sts (position+4)+1,__zero_reg__
 1588 0928 1092 0000 		sts position+4,__zero_reg__
 1589 092c 80E0      		ldi r24,lo8(0)
 1590 092e 90E0      		ldi r25,hi8(0)
 1591               	.LVL46:
 1592               	.LBB76:
 1593               	.LBB77:
 1594               	.LBB78:
 1595               	.LBB79:
 1596               	.LM164:
 1597 0930 2FEF      		ldi r18,lo8(-1)
 1598 0932 3FEF      		ldi r19,hi8(-1)
 1599               	.L176:
 1600 0934 FC01      		movw r30,r24
 1601 0936 EE0F      		lsl r30
 1602 0938 FF1F      		rol r31
 1603 093a E80F      		add r30,r24
 1604 093c F91F      		adc r31,r25
 1605 093e EE0F      		lsl r30
 1606 0940 FF1F      		rol r31
 1607 0942 DF01      		movw r26,r30
 1608 0944 A050      		subi r26,lo8(-(snake))
 1609 0946 B040      		sbci r27,hi8(-(snake))
 1610 0948 1196      		adiw r26,1
 1611 094a 3C93      		st X,r19
 1612 094c 2E93      		st -X,r18
 1613 094e E050      		subi r30,lo8(-(snake+2))
 1614 0950 F040      		sbci r31,hi8(-(snake+2))
 1615 0952 3183      		std Z+1,r19
 1616 0954 2083      		st Z,r18
 1617 0956 1596      		adiw r26,4+1
 1618 0958 3C93      		st X,r19
 1619 095a 2E93      		st -X,r18
 1620 095c 1497      		sbiw r26,4
 1621               	.LBE79:
 1622               	.LM165:
 1623 095e 0196      		adiw r24,1
 1624 0960 8E31      		cpi r24,30
 1625 0962 9105      		cpc r25,__zero_reg__
 1626 0964 01F4      		brne .L176
 1627               	.LBE78:
 1628               	.LBE77:
 1629               	.LBE76:
 1630               	.LM166:
 1631 0966 8091 0000 		lds r24,position
 1632 096a 9091 0000 		lds r25,(position)+1
 1633               	.LVL47:
 1634 096e 9093 0000 		sts (snake)+1,r25
 1635 0972 8093 0000 		sts snake,r24
 1636               	.LM167:
 1637 0976 8091 0000 		lds r24,position+2
 1638 097a 9091 0000 		lds r25,(position+2)+1
 1639 097e 9093 0000 		sts (snake+2)+1,r25
 1640 0982 8093 0000 		sts snake+2,r24
 1641               	.LM168:
 1642 0986 8091 0000 		lds r24,position+4
 1643 098a 9091 0000 		lds r25,(position+4)+1
 1644 098e 9093 0000 		sts (snake+4)+1,r25
 1645 0992 8093 0000 		sts snake+4,r24
 1646               	.LM169:
 1647 0996 8091 0000 		lds r24,position
 1648 099a 9091 0000 		lds r25,(position)+1
 1649 099e E091 0000 		lds r30,posx
 1650 09a2 F091 0000 		lds r31,(posx)+1
 1651 09a6 9183      		std Z+1,r25
 1652 09a8 8083      		st Z,r24
 1653               	.LM170:
 1654 09aa 8091 0000 		lds r24,position+2
 1655 09ae 9091 0000 		lds r25,(position+2)+1
 1656 09b2 E091 0000 		lds r30,posy
 1657 09b6 F091 0000 		lds r31,(posy)+1
 1658 09ba 9183      		std Z+1,r25
 1659 09bc 8083      		st Z,r24
 1660               	.LM171:
 1661 09be 8091 0000 		lds r24,position+4
 1662 09c2 9091 0000 		lds r25,(position+4)+1
 1663 09c6 E091 0000 		lds r30,posz
 1664 09ca F091 0000 		lds r31,(posz)+1
 1665 09ce 9183      		std Z+1,r25
 1666 09d0 8083      		st Z,r24
 1667               	.LM172:
 1668 09d2 E091 0000 		lds r30,fruitx
 1669 09d6 F091 0000 		lds r31,(fruitx)+1
 1670 09da 8091 0000 		lds r24,fruit
 1671 09de 9091 0000 		lds r25,(fruit)+1
 1672 09e2 9183      		std Z+1,r25
 1673 09e4 8083      		st Z,r24
 1674               	.LM173:
 1675 09e6 E091 0000 		lds r30,fruity
 1676 09ea F091 0000 		lds r31,(fruity)+1
 1677 09ee 8091 0000 		lds r24,fruit+2
 1678 09f2 9091 0000 		lds r25,(fruit+2)+1
 1679 09f6 9183      		std Z+1,r25
 1680 09f8 8083      		st Z,r24
 1681               	.LM174:
 1682 09fa E091 0000 		lds r30,fruitz
 1683 09fe F091 0000 		lds r31,(fruitz)+1
 1684 0a02 8091 0000 		lds r24,fruit+4
 1685 0a06 9091 0000 		lds r25,(fruit+4)+1
 1686 0a0a 9183      		std Z+1,r25
 1687 0a0c 8083      		st Z,r24
 1688               	.LM175:
 1689 0a0e 0E94 0000 		call generateFruitPlace
 1690               	.LBB80:
 1691               	.LBB81:
 1692               	.LBB82:
 1693               	.LBB83:
 1694               	.LBB84:
 1695               	.LBB85:
 1696               	.LM176:
 1697 0a12 C0EA      		ldi r28,lo8(4000)
 1698 0a14 DFE0      		ldi r29,hi8(4000)
 1699               	.LVL48:
 1700               	.L178:
 1701               	.LBE85:
 1702               	.LBE84:
 1703               	.LBE83:
 1704               	.LBE82:
 1705               	.LBE81:
 1706               	.LBE80:
 1707               	.LM177:
 1708 0a16 80E0      		ldi r24,lo8(0)
 1709               	.LVL49:
 1710 0a18 0E94 0000 		call fill
 1711               	.LVL50:
 1712               	.LM178:
 1713 0a1c 0E94 0000 		call displaySnake
 1714               	.LM179:
 1715 0a20 6091 0000 		lds r22,fruit+2
 1716 0a24 7091 0000 		lds r23,(fruit+2)+1
 1717 0a28 4091 0000 		lds r20,fruit+4
 1718 0a2c 5091 0000 		lds r21,(fruit+4)+1
 1719 0a30 8091 0000 		lds r24,fruit
 1720 0a34 9091 0000 		lds r25,(fruit)+1
 1721 0a38 0E94 0000 		call setLED
 1722               	.LBB91:
 1723               	.LBB92:
 1724               	.LM180:
 1725 0a3c 0E94 0000 		call snakeMove
 1726               	.LBE92:
 1727               	.LBE91:
 1728               	.LM181:
 1729 0a40 80E0      		ldi r24,lo8(position)
 1730 0a42 90E0      		ldi r25,hi8(position)
 1731 0a44 60E0      		ldi r22,lo8(fruit)
 1732 0a46 70E0      		ldi r23,hi8(fruit)
 1733 0a48 0E94 0000 		call fruitHandler
 1734 0a4c 80E0      		ldi r24,lo8(0)
 1735 0a4e 90E0      		ldi r25,hi8(0)
 1736               	.LVL51:
 1737               	.L177:
 1738               	.LBB93:
 1739               	.LBB90:
 1740               	.LBB89:
 1741               	.LBB88:
 1742               	.LBB87:
 1743               	.LBB86:
 1744               	.LM182:
 1745 0a50 FE01      		movw r30,r28
 1746               	.LVL52:
 1747               	/* #APP */
 1748               	 ;  105 "c:/winavr-20081205/lib/gcc/../../avr/include/util/delay_basic.h" 1
 1749 0a52 3197      		1: sbiw r30,1
 1750 0a54 01F4      		brne 1b
 1751               	 ;  0 "" 2
 1752               	/* #NOAPP */
 1753               	.LBE86:
 1754               	.LBE87:
 1755               	.LBE88:
 1756               	.LBE89:
 1757               	.LM183:
 1758 0a56 0196      		adiw r24,1
 1759 0a58 21E0      		ldi r18,hi8(500)
 1760 0a5a 843F      		cpi r24,lo8(500)
 1761 0a5c 9207      		cpc r25,r18
 1762 0a5e 01F4      		brne .L177
 1763 0a60 00C0      		rjmp .L178
 1764               	.LBE90:
 1765               	.LBE93:
 1766               	.LFE14:
 1768               	.global	launch_effect
 1770               	launch_effect:
 1771               	.LFB22:
 1772               	.LM184:
 1773               	/* prologue: function */
 1774               	/* frame size = 0 */
 1775               	.LVL53:
 1776               	.L183:
 1777               	.LM185:
 1778 0a62 0E94 0000 		call start
 1779               	.LVL54:
 1780               	.LM186:
 1781 0a66 0E94 0000 		call writeEestec
 1782 0a6a 00C0      		rjmp .L183
 1783               	.LFE22:
 1785               	.global	main
 1787               	main:
 1788               	.LFB15:
 1789               	.LM187:
 1790               	/* prologue: function */
 1791               	/* frame size = 0 */
 1792               	.LM188:
 1793 0a6c 1092 0000 		sts current_layer,__zero_reg__
 1794               	.LM189:
 1795 0a70 1092 0000 		sts current_Yrow,__zero_reg__
 1796               	.LM190:
 1797 0a74 1092 0000 		sts current_effect,__zero_reg__
 1798               	.LM191:
 1799 0a78 0E94 0000 		call cube_ini
 1800               	.LM192:
 1801 0a7c 1092 0000 		sts choice,__zero_reg__
 1802               	.LM193:
 1803 0a80 1092 0000 		sts (direction)+1,__zero_reg__
 1804 0a84 1092 0000 		sts direction,__zero_reg__
 1805               	.LM194:
 1806 0a88 84EF      		ldi r24,lo8(500)
 1807 0a8a 91E0      		ldi r25,hi8(500)
 1808 0a8c 0E94 0000 		call boot_check
 1809               	.L186:
 1810               	.LM195:
 1811 0a90 8091 0000 		lds r24,current_effect
 1812 0a94 0E94 0000 		call launch_effect
 1813 0a98 00C0      		rjmp .L186
 1814               	.LFE15:
 1816               		.comm _Y_,5,1
 1817               		.comm _X_,5,1
 1818               		.comm _Z_,5,1
 1819               		.comm cube,25,1
 1820               		.comm direction,2,1
 1821               		.comm tmpcube,25,1
 1822               		.comm current_layer,1,1
 1823               		.comm current_Yrow,1,1
 1824               		.comm current_effect,1,1
 1825               		.comm choice,1,1
 1826               		.comm position,6,1
 1827               		.comm head,6,1
 1828               		.comm posx,2,1
 1829               		.comm posy,2,1
 1830               		.comm posz,2,1
 1831               		.comm fruit,6,1
 1832               		.comm fruitx,2,1
 1833               		.comm fruity,2,1
 1834               		.comm fruitz,2,1
 1835               		.comm snake,180,1
 1980               	.Letext0:
DEFINED SYMBOLS
                            *ABS*:00000000 main.c
C:\DOCUME~1\ds20\LOCALS~1\Temp/ccxRFe01.s:2      *ABS*:0000003f __SREG__
C:\DOCUME~1\ds20\LOCALS~1\Temp/ccxRFe01.s:3      *ABS*:0000003e __SP_H__
C:\DOCUME~1\ds20\LOCALS~1\Temp/ccxRFe01.s:4      *ABS*:0000003d __SP_L__
C:\DOCUME~1\ds20\LOCALS~1\Temp/ccxRFe01.s:5      *ABS*:00000034 __CCP__
C:\DOCUME~1\ds20\LOCALS~1\Temp/ccxRFe01.s:6      *ABS*:00000000 __tmp_reg__
C:\DOCUME~1\ds20\LOCALS~1\Temp/ccxRFe01.s:7      *ABS*:00000001 __zero_reg__
C:\DOCUME~1\ds20\LOCALS~1\Temp/ccxRFe01.s:20     .text:00000000 fillSnake
                            *COM*:000000b4 snake
C:\DOCUME~1\ds20\LOCALS~1\Temp/ccxRFe01.s:70     .text:0000003c snakeMove
                            *COM*:00000002 direction
                            *COM*:00000006 head
C:\DOCUME~1\ds20\LOCALS~1\Temp/ccxRFe01.s:699    .text:0000047e directionHandler
C:\DOCUME~1\ds20\LOCALS~1\Temp/ccxRFe01.s:715    .text:00000484 enlarge
C:\DOCUME~1\ds20\LOCALS~1\Temp/ccxRFe01.s:828    .text:00000532 delay_ms
C:\DOCUME~1\ds20\LOCALS~1\Temp/ccxRFe01.s:873    .text:0000054e cube_ini
                            *COM*:00000005 _X_
                            *COM*:00000005 _Y_
                            *COM*:00000005 _Z_
C:\DOCUME~1\ds20\LOCALS~1\Temp/ccxRFe01.s:972    .text:000005d4 __vector_10
                            *COM*:00000001 current_layer
                            *COM*:00000001 current_Yrow
                            *COM*:00000019 cube
C:\DOCUME~1\ds20\LOCALS~1\Temp/ccxRFe01.s:1055   .text:00000668 __vector_3
C:\DOCUME~1\ds20\LOCALS~1\Temp/ccxRFe01.s:1092   .text:000006a4 check
C:\DOCUME~1\ds20\LOCALS~1\Temp/ccxRFe01.s:1175   .text:000006fc displaySnake
C:\DOCUME~1\ds20\LOCALS~1\Temp/ccxRFe01.s:1321   .text:000007dc boot_check
C:\DOCUME~1\ds20\LOCALS~1\Temp/ccxRFe01.s:1451   .text:00000840 generateFruitPlace
                            *COM*:00000006 fruit
C:\DOCUME~1\ds20\LOCALS~1\Temp/ccxRFe01.s:1526   .text:000008c6 fruitHandler
C:\DOCUME~1\ds20\LOCALS~1\Temp/ccxRFe01.s:1573   .text:00000910 start
                            *COM*:00000006 position
                            *COM*:00000002 posx
                            *COM*:00000002 posy
                            *COM*:00000002 posz
                            *COM*:00000002 fruitx
                            *COM*:00000002 fruity
                            *COM*:00000002 fruitz
C:\DOCUME~1\ds20\LOCALS~1\Temp/ccxRFe01.s:1770   .text:00000a62 launch_effect
C:\DOCUME~1\ds20\LOCALS~1\Temp/ccxRFe01.s:1787   .text:00000a6c main
                            *COM*:00000001 current_effect
                            *COM*:00000001 choice
                            *COM*:00000019 tmpcube

UNDEFINED SYMBOLS
__do_copy_data
__do_clear_bss
setLED
fill
rand
__divmodhi4
getLED
matrix
writeEestec
