   1               		.file	"animation.c"
   2               	__SREG__ = 0x3f
   3               	__SP_H__ = 0x3e
   4               	__SP_L__ = 0x3d
   5               	__CCP__ = 0x34
   6               	__tmp_reg__ = 0
   7               	__zero_reg__ = 1
  15               	.Ltext0:
  16               	.global	effect_spiral
  18               	effect_spiral:
  19               	.LFB1:
  20               	.LM1:
  21               	.LVL0:
  22 0000 CF92      		push r12
  23 0002 DF92      		push r13
  24 0004 EF92      		push r14
  25 0006 FF92      		push r15
  26 0008 0F93      		push r16
  27 000a 1F93      		push r17
  28 000c CF93      		push r28
  29 000e DF93      		push r29
  30               	/* prologue: function */
  31               	/* frame size = 0 */
  32               	/* stack size = 8 */
  33               	.L__stack_usage = 8
  34 0010 6B01      		movw r12,r22
  35 0012 8A01      		movw r16,r20
  36               	.LVL1:
  37               	.LM2:
  38 0014 C0E0      		ldi r28,lo8(0)
  39 0016 D0E0      		ldi r29,hi8(0)
  40               	.LBB2:
  41               	.LM3:
  42 0018 76E0      		ldi r23,lo8(6)
  43 001a E72E      		mov r14,r23
  44 001c F12C      		mov r15,__zero_reg__
  45               	.LBE2:
  46               	.LM4:
  47 001e 00C0      		rjmp .L2
  48               	.LVL2:
  49               	.L4:
  50               	.LM5:
  51 0020 20E0      		ldi r18,lo8(0)
  52 0022 30E0      		ldi r19,hi8(0)
  53               	.L3:
  54               	.LBB3:
  55               	.LM6:
  56 0024 C901      		movw r24,r18
  57 0026 8C0F      		add r24,r28
  58 0028 9D1F      		adc r25,r29
  59               	.LM7:
  60 002a B701      		movw r22,r14
  61 002c 0E94 0000 		call __divmodhi4
  62 0030 AC01      		movw r20,r24
  63 0032 440F      		lsl r20
  64 0034 551F      		rol r21
  65 0036 440F      		lsl r20
  66 0038 551F      		rol r21
  67 003a 480F      		add r20,r24
  68 003c 591F      		adc r21,r25
  69               	.LVL3:
  70 003e FA01      		movw r30,r20
  71 0040 E050      		subi r30,lo8(-(spinning_line))
  72 0042 F040      		sbci r31,hi8(-(spinning_line))
  73               	/* #APP */
  74               	 ;  41 "animation.c" 1
  75 0044 E491      		lpm r30, Z
  76               		
  77               	 ;  0 "" 2
  78               	.LVL4:
  79               	/* #NOAPP */
  80               	.LBE3:
  81 0046 D901      		movw r26,r18
  82 0048 AA0F      		lsl r26
  83 004a BB1F      		rol r27
  84 004c AA0F      		lsl r26
  85 004e BB1F      		rol r27
  86 0050 A20F      		add r26,r18
  87 0052 B31F      		adc r27,r19
  88 0054 A050      		subi r26,lo8(-(cube))
  89 0056 B040      		sbci r27,hi8(-(cube))
  90 0058 EC93      		st X,r30
  91               	.LVL5:
  92               	.LBB4:
  93               	.LM8:
  94 005a FA01      		movw r30,r20
  95               	.LVL6:
  96 005c E050      		subi r30,lo8(-(spinning_line+1))
  97 005e F040      		sbci r31,hi8(-(spinning_line+1))
  98               	/* #APP */
  99               	 ;  42 "animation.c" 1
 100 0060 E491      		lpm r30, Z
 101               		
 102               	 ;  0 "" 2
 103               	.LVL7:
 104               	/* #NOAPP */
 105               	.LBE4:
 106 0062 1196      		adiw r26,1
 107 0064 EC93      		st X,r30
 108 0066 1197      		sbiw r26,1
 109               	.LVL8:
 110               	.LBB5:
 111               	.LM9:
 112 0068 FA01      		movw r30,r20
 113               	.LVL9:
 114 006a E050      		subi r30,lo8(-(spinning_line+2))
 115 006c F040      		sbci r31,hi8(-(spinning_line+2))
 116               	/* #APP */
 117               	 ;  43 "animation.c" 1
 118 006e E491      		lpm r30, Z
 119               		
 120               	 ;  0 "" 2
 121               	.LVL10:
 122               	/* #NOAPP */
 123               	.LBE5:
 124 0070 1296      		adiw r26,2
 125 0072 EC93      		st X,r30
 126 0074 1297      		sbiw r26,2
 127               	.LVL11:
 128               	.LBB6:
 129               	.LM10:
 130 0076 FA01      		movw r30,r20
 131               	.LVL12:
 132 0078 E050      		subi r30,lo8(-(spinning_line+3))
 133 007a F040      		sbci r31,hi8(-(spinning_line+3))
 134               	/* #APP */
 135               	 ;  44 "animation.c" 1
 136 007c E491      		lpm r30, Z
 137               		
 138               	 ;  0 "" 2
 139               	.LVL13:
 140               	/* #NOAPP */
 141               	.LBE6:
 142 007e 1396      		adiw r26,3
 143 0080 EC93      		st X,r30
 144 0082 1397      		sbiw r26,3
 145               	.LVL14:
 146               	.LBB7:
 147               	.LM11:
 148 0084 4050      		subi r20,lo8(-(spinning_line+4))
 149 0086 5040      		sbci r21,hi8(-(spinning_line+4))
 150               	.LVL15:
 151 0088 FA01      		movw r30,r20
 152               	.LVL16:
 153               	/* #APP */
 154               	 ;  45 "animation.c" 1
 155 008a 4491      		lpm r20, Z
 156               		
 157               	 ;  0 "" 2
 158               	.LVL17:
 159               	/* #NOAPP */
 160               	.LBE7:
 161 008c 1496      		adiw r26,4
 162 008e 4C93      		st X,r20
 163 0090 1497      		sbiw r26,4
 164               	.LM12:
 165 0092 2F5F      		subi r18,lo8(-(1))
 166 0094 3F4F      		sbci r19,hi8(-(1))
 167               	.LVL18:
 168 0096 2530      		cpi r18,5
 169 0098 3105      		cpc r19,__zero_reg__
 170 009a 01F0      		breq .+2
 171 009c 00C0      		rjmp .L3
 172               	.LM13:
 173 009e C801      		movw r24,r16
 174 00a0 0E94 0000 		call delay_ms
 175               	.LVL19:
 176               	.LM14:
 177 00a4 2196      		adiw r28,1
 178               	.LVL20:
 179               	.L2:
 180               	.LM15:
 181 00a6 CC15      		cp r28,r12
 182 00a8 DD05      		cpc r29,r13
 183 00aa 04F4      		brge .+2
 184 00ac 00C0      		rjmp .L4
 185               	/* epilogue start */
 186               	.LM16:
 187 00ae DF91      		pop r29
 188 00b0 CF91      		pop r28
 189               	.LVL21:
 190 00b2 1F91      		pop r17
 191 00b4 0F91      		pop r16
 192               	.LVL22:
 193 00b6 FF90      		pop r15
 194 00b8 EF90      		pop r14
 195 00ba DF90      		pop r13
 196 00bc CF90      		pop r12
 197               	.LVL23:
 198 00be 0895      		ret
 199               	.LFE1:
 201               	.global	effect_spinning_plane
 203               	effect_spinning_plane:
 204               	.LFB2:
 205               	.LM17:
 206               	.LVL24:
 207 00c0 BF92      		push r11
 208 00c2 CF92      		push r12
 209 00c4 DF92      		push r13
 210 00c6 EF92      		push r14
 211 00c8 FF92      		push r15
 212 00ca 0F93      		push r16
 213 00cc 1F93      		push r17
 214 00ce CF93      		push r28
 215 00d0 DF93      		push r29
 216               	/* prologue: function */
 217               	/* frame size = 0 */
 218               	/* stack size = 9 */
 219               	.L__stack_usage = 9
 220 00d2 6B01      		movw r12,r22
 221 00d4 8A01      		movw r16,r20
 222               	.LVL25:
 223               	.LM18:
 224 00d6 C0E0      		ldi r28,lo8(0)
 225 00d8 D0E0      		ldi r29,hi8(0)
 226               	.LBB8:
 227               	.LM19:
 228 00da 86E0      		ldi r24,lo8(6)
 229 00dc E82E      		mov r14,r24
 230 00de F12C      		mov r15,__zero_reg__
 231               	.LVL26:
 232               	.LBE8:
 233               	.LM20:
 234 00e0 00C0      		rjmp .L7
 235               	.LVL27:
 236               	.L8:
 237               	.LM21:
 238 00e2 FC01      		movw r30,r24
 239 00e4 EE0F      		lsl r30
 240 00e6 FF1F      		rol r31
 241 00e8 EE0F      		lsl r30
 242 00ea FF1F      		rol r31
 243 00ec E80F      		add r30,r24
 244 00ee F91F      		adc r31,r25
 245 00f0 E050      		subi r30,lo8(-(cube))
 246 00f2 F040      		sbci r31,hi8(-(cube))
 247 00f4 B082      		st Z,r11
 248               	.LM22:
 249 00f6 A183      		std Z+1,r26
 250               	.LM23:
 251 00f8 6283      		std Z+2,r22
 252               	.LM24:
 253 00fa 4383      		std Z+3,r20
 254               	.LM25:
 255 00fc 2483      		std Z+4,r18
 256               	.LM26:
 257 00fe 0196      		adiw r24,1
 258               	.LVL28:
 259 0100 8530      		cpi r24,5
 260 0102 9105      		cpc r25,__zero_reg__
 261 0104 01F4      		brne .L8
 262               	.LM27:
 263 0106 C801      		movw r24,r16
 264               	.LVL29:
 265 0108 0E94 0000 		call delay_ms
 266               	.LM28:
 267 010c 2196      		adiw r28,1
 268               	.LVL30:
 269               	.L7:
 270               	.LM29:
 271 010e CC15      		cp r28,r12
 272 0110 DD05      		cpc r29,r13
 273 0112 04F4      		brge .L6
 274               	.LBB9:
 275               	.LM30:
 276 0114 CE01      		movw r24,r28
 277 0116 B701      		movw r22,r14
 278 0118 0E94 0000 		call __divmodhi4
 279 011c 9C01      		movw r18,r24
 280 011e 220F      		lsl r18
 281 0120 331F      		rol r19
 282 0122 220F      		lsl r18
 283 0124 331F      		rol r19
 284 0126 280F      		add r18,r24
 285 0128 391F      		adc r19,r25
 286 012a F901      		movw r30,r18
 287 012c E050      		subi r30,lo8(-(spinning_line))
 288 012e F040      		sbci r31,hi8(-(spinning_line))
 289               	.LBE9:
 290               	.LBB10:
 291               	.LM31:
 292 0130 D901      		movw r26,r18
 293 0132 A050      		subi r26,lo8(-(spinning_line+1))
 294 0134 B040      		sbci r27,hi8(-(spinning_line+1))
 295               	.LBE10:
 296               	.LBB11:
 297               	.LM32:
 298 0136 B901      		movw r22,r18
 299 0138 6050      		subi r22,lo8(-(spinning_line+2))
 300 013a 7040      		sbci r23,hi8(-(spinning_line+2))
 301               	.LBE11:
 302               	.LBB12:
 303               	.LM33:
 304 013c A901      		movw r20,r18
 305 013e 4050      		subi r20,lo8(-(spinning_line+3))
 306 0140 5040      		sbci r21,hi8(-(spinning_line+3))
 307               	.LBE12:
 308               	.LBB13:
 309               	.LM34:
 310 0142 2050      		subi r18,lo8(-(spinning_line+4))
 311 0144 3040      		sbci r19,hi8(-(spinning_line+4))
 312 0146 80E0      		ldi r24,lo8(0)
 313 0148 90E0      		ldi r25,hi8(0)
 314               	.LBE13:
 315               	.LBB14:
 316               	.LM35:
 317               	/* #APP */
 318               	 ;  64 "animation.c" 1
 319 014a B490      		lpm r11, Z
 320               		
 321               	 ;  0 "" 2
 322               	/* #NOAPP */
 323               	.LBE14:
 324               	.LBB15:
 325               	.LM36:
 326 014c FD01      		movw r30,r26
 327               	/* #APP */
 328               	 ;  65 "animation.c" 1
 329 014e A491      		lpm r26, Z
 330               		
 331               	 ;  0 "" 2
 332               	/* #NOAPP */
 333               	.LBE15:
 334               	.LBB16:
 335               	.LM37:
 336 0150 FB01      		movw r30,r22
 337               	/* #APP */
 338               	 ;  66 "animation.c" 1
 339 0152 6491      		lpm r22, Z
 340               		
 341               	 ;  0 "" 2
 342               	/* #NOAPP */
 343               	.LBE16:
 344               	.LBB17:
 345               	.LM38:
 346 0154 FA01      		movw r30,r20
 347               	/* #APP */
 348               	 ;  67 "animation.c" 1
 349 0156 4491      		lpm r20, Z
 350               		
 351               	 ;  0 "" 2
 352               	/* #NOAPP */
 353               	.LBE17:
 354               	.LBB18:
 355               	.LM39:
 356 0158 F901      		movw r30,r18
 357               	/* #APP */
 358               	 ;  68 "animation.c" 1
 359 015a 2491      		lpm r18, Z
 360               		
 361               	 ;  0 "" 2
 362               	/* #NOAPP */
 363 015c 00C0      		rjmp .L8
 364               	.L6:
 365               	/* epilogue start */
 366               	.LBE18:
 367               	.LM40:
 368 015e DF91      		pop r29
 369 0160 CF91      		pop r28
 370               	.LVL31:
 371 0162 1F91      		pop r17
 372 0164 0F91      		pop r16
 373               	.LVL32:
 374 0166 FF90      		pop r15
 375 0168 EF90      		pop r14
 376 016a DF90      		pop r13
 377 016c CF90      		pop r12
 378               	.LVL33:
 379 016e BF90      		pop r11
 380 0170 0895      		ret
 381               	.LFE2:
 383               	.global	effect_rain
 385               	effect_rain:
 386               	.LFB3:
 387               	.LM41:
 388               	.LVL34:
 389 0172 6F92      		push r6
 390 0174 7F92      		push r7
 391 0176 8F92      		push r8
 392 0178 9F92      		push r9
 393 017a AF92      		push r10
 394 017c BF92      		push r11
 395 017e CF92      		push r12
 396 0180 DF92      		push r13
 397 0182 EF92      		push r14
 398 0184 FF92      		push r15
 399 0186 0F93      		push r16
 400 0188 1F93      		push r17
 401 018a CF93      		push r28
 402 018c DF93      		push r29
 403               	/* prologue: function */
 404               	/* frame size = 0 */
 405               	/* stack size = 14 */
 406               	.L__stack_usage = 14
 407 018e 5C01      		movw r10,r24
 408 0190 4B01      		movw r8,r22
 409 0192 3A01      		movw r6,r20
 410 0194 7901      		movw r14,r18
 411               	.LM42:
 412 0196 80E0      		ldi r24,lo8(0)
 413               	.LVL35:
 414 0198 0E94 0000 		call fill
 415               	.LVL36:
 416               	.LM43:
 417 019c 00E0      		ldi r16,lo8(0)
 418 019e 10E0      		ldi r17,hi8(0)
 419               	.LM44:
 420 01a0 85E0      		ldi r24,lo8(5)
 421 01a2 C82E      		mov r12,r24
 422 01a4 D12C      		mov r13,__zero_reg__
 423               	.LM45:
 424 01a6 00C0      		rjmp .L12
 425               	.LVL37:
 426               	.L18:
 427               	.LM46:
 428 01a8 0E94 0000 		call rand
 429 01ac EC01      		movw r28,r24
 430 01ae 0E94 0000 		call rand
 431 01b2 FC01      		movw r30,r24
 432 01b4 CE01      		movw r24,r28
 433 01b6 B601      		movw r22,r12
 434 01b8 0E94 0000 		call __divmodhi4
 435 01bc 9C01      		movw r18,r24
 436 01be CF01      		movw r24,r30
 437 01c0 B601      		movw r22,r12
 438 01c2 0E94 0000 		call __divmodhi4
 439 01c6 BC01      		movw r22,r24
 440 01c8 C901      		movw r24,r18
 441 01ca 44E0      		ldi r20,lo8(4)
 442 01cc 50E0      		ldi r21,hi8(4)
 443 01ce 0E94 0000 		call setLED
 444               	.LM47:
 445 01d2 C301      		movw r24,r6
 446 01d4 0E94 0000 		call delay_ms
 447               	.LVL38:
 448               	.LM48:
 449 01d8 C1E0      		ldi r28,lo8(1)
 450 01da D0E0      		ldi r29,hi8(1)
 451 01dc 00C0      		rjmp .L13
 452               	.LVL39:
 453               	.L14:
 454               	.LM49:
 455 01de DB01      		movw r26,r22
 456 01e0 A20F      		add r26,r18
 457 01e2 B31F      		adc r27,r19
 458 01e4 A050      		subi r26,lo8(-(cube))
 459 01e6 B040      		sbci r27,hi8(-(cube))
 460 01e8 8C91      		ld r24,X
 461 01ea DA01      		movw r26,r20
 462 01ec A20F      		add r26,r18
 463 01ee B31F      		adc r27,r19
 464 01f0 A050      		subi r26,lo8(-(cube))
 465 01f2 B040      		sbci r27,hi8(-(cube))
 466 01f4 8C93      		st X,r24
 467               	.LM50:
 468 01f6 2F5F      		subi r18,lo8(-(1))
 469 01f8 3F4F      		sbci r19,hi8(-(1))
 470               	.LVL40:
 471 01fa 2530      		cpi r18,5
 472 01fc 3105      		cpc r19,__zero_reg__
 473 01fe 01F4      		brne .L14
 474               	.LM51:
 475 0200 CF01      		movw r24,r30
 476               	.LVL41:
 477               	.LM52:
 478 0202 E430      		cpi r30,4
 479 0204 F105      		cpc r31,__zero_reg__
 480 0206 01F0      		breq .L15
 481               	.LVL42:
 482               	.L17:
 483               	.LM53:
 484 0208 20E0      		ldi r18,lo8(0)
 485 020a 30E0      		ldi r19,hi8(0)
 486               	.LM54:
 487 020c FC01      		movw r30,r24
 488 020e 3196      		adiw r30,1
 489               	.LM55:
 490 0210 BF01      		movw r22,r30
 491 0212 660F      		lsl r22
 492 0214 771F      		rol r23
 493 0216 660F      		lsl r22
 494 0218 771F      		rol r23
 495 021a 6E0F      		add r22,r30
 496 021c 7F1F      		adc r23,r31
 497 021e AC01      		movw r20,r24
 498 0220 440F      		lsl r20
 499 0222 551F      		rol r21
 500 0224 440F      		lsl r20
 501 0226 551F      		rol r21
 502 0228 480F      		add r20,r24
 503 022a 591F      		adc r21,r25
 504 022c 00C0      		rjmp .L14
 505               	.LVL43:
 506               	.L15:
 507               	.LM56:
 508 022e 1092 0000 		sts cube+20,__zero_reg__
 509               	.LM57:
 510 0232 1092 0000 		sts cube+21,__zero_reg__
 511               	.LM58:
 512 0236 1092 0000 		sts cube+22,__zero_reg__
 513               	.LM59:
 514 023a 1092 0000 		sts cube+23,__zero_reg__
 515               	.LM60:
 516 023e 1092 0000 		sts cube+24,__zero_reg__
 517               	.LM61:
 518 0242 C701      		movw r24,r14
 519               	.LVL44:
 520 0244 BE01      		movw r22,r28
 521 0246 0E94 0000 		call __divmodhi4
 522 024a CB01      		movw r24,r22
 523 024c 8E0D      		add r24,r14
 524 024e 9F1D      		adc r25,r15
 525 0250 0E94 0000 		call delay_ms
 526               	.LVL45:
 527               	.LM62:
 528 0254 2196      		adiw r28,1
 529               	.LVL46:
 530 0256 C530      		cpi r28,5
 531 0258 D105      		cpc r29,__zero_reg__
 532 025a 01F0      		breq .L16
 533               	.LVL47:
 534               	.L13:
 535               	.LM63:
 536 025c 80E0      		ldi r24,lo8(0)
 537 025e 90E0      		ldi r25,hi8(0)
 538 0260 00C0      		rjmp .L17
 539               	.LVL48:
 540               	.L16:
 541               	.LM64:
 542 0262 80E0      		ldi r24,lo8(0)
 543 0264 0E94 0000 		call fill
 544               	.LM65:
 545 0268 C401      		movw r24,r8
 546 026a 0E94 0000 		call delay_ms
 547               	.LM66:
 548 026e 0F5F      		subi r16,lo8(-(1))
 549 0270 1F4F      		sbci r17,hi8(-(1))
 550               	.LVL49:
 551               	.L12:
 552               	.LM67:
 553 0272 0A15      		cp r16,r10
 554 0274 1B05      		cpc r17,r11
 555 0276 04F4      		brge .+2
 556 0278 00C0      		rjmp .L18
 557               	/* epilogue start */
 558               	.LM68:
 559 027a DF91      		pop r29
 560 027c CF91      		pop r28
 561 027e 1F91      		pop r17
 562 0280 0F91      		pop r16
 563               	.LVL50:
 564 0282 FF90      		pop r15
 565 0284 EF90      		pop r14
 566               	.LVL51:
 567 0286 DF90      		pop r13
 568 0288 CF90      		pop r12
 569 028a BF90      		pop r11
 570 028c AF90      		pop r10
 571               	.LVL52:
 572 028e 9F90      		pop r9
 573 0290 8F90      		pop r8
 574               	.LVL53:
 575 0292 7F90      		pop r7
 576 0294 6F90      		pop r6
 577               	.LVL54:
 578 0296 0895      		ret
 579               	.LFE3:
 581               	.global	sendvoxel_z
 583               	sendvoxel_z:
 584               	.LFB4:
 585               	.LM69:
 586               	.LVL55:
 587 0298 7F92      		push r7
 588 029a 8F92      		push r8
 589 029c 9F92      		push r9
 590 029e AF92      		push r10
 591 02a0 BF92      		push r11
 592 02a2 CF92      		push r12
 593 02a4 DF92      		push r13
 594 02a6 EF92      		push r14
 595 02a8 FF92      		push r15
 596 02aa 0F93      		push r16
 597 02ac 1F93      		push r17
 598 02ae CF93      		push r28
 599 02b0 DF93      		push r29
 600               	/* prologue: function */
 601               	/* frame size = 0 */
 602               	/* stack size = 13 */
 603               	.L__stack_usage = 13
 604 02b2 F82E      		mov r15,r24
 605 02b4 E62E      		mov r14,r22
 606 02b6 742E      		mov r7,r20
 607 02b8 4901      		movw r8,r18
 608               	.LVL56:
 609               	.LM70:
 610 02ba 05E0      		ldi r16,lo8(5)
 611 02bc 10E0      		ldi r17,hi8(5)
 612               	.LM71:
 613 02be 25E0      		ldi r18,lo8(5)
 614 02c0 C22E      		mov r12,r18
 615 02c2 D12C      		mov r13,__zero_reg__
 616               	.LVL57:
 617 02c4 94E0      		ldi r25,lo8(4)
 618 02c6 A92E      		mov r10,r25
 619 02c8 B12C      		mov r11,__zero_reg__
 620               	.LVL58:
 621               	.L23:
 622 02ca E601      		movw r28,r12
 623 02cc C01B      		sub r28,r16
 624 02ce D10B      		sbc r29,r17
 625               	.LM72:
 626 02d0 872D      		mov r24,r7
 627 02d2 8430      		cpi r24,lo8(4)
 628 02d4 01F4      		brne .L21
 629               	.LM73:
 630 02d6 E801      		movw r28,r16
 631 02d8 2197      		sbiw r28,1
 632               	.LVL59:
 633               	.LM74:
 634 02da 8F2D      		mov r24,r15
 635 02dc 90E0      		ldi r25,lo8(0)
 636 02de 6E2D      		mov r22,r14
 637 02e0 70E0      		ldi r23,lo8(0)
 638 02e2 A801      		movw r20,r16
 639 02e4 00C0      		rjmp .L25
 640               	.LVL60:
 641               	.L21:
 642               	.LM75:
 643 02e6 A501      		movw r20,r10
 644 02e8 401B      		sub r20,r16
 645 02ea 510B      		sbc r21,r17
 646               	.LM76:
 647 02ec 8F2D      		mov r24,r15
 648 02ee 90E0      		ldi r25,lo8(0)
 649 02f0 6E2D      		mov r22,r14
 650 02f2 70E0      		ldi r23,lo8(0)
 651               	.L25:
 652 02f4 0E94 0000 		call clrLED
 653               	.LM77:
 654 02f8 8F2D      		mov r24,r15
 655 02fa 90E0      		ldi r25,lo8(0)
 656 02fc 6E2D      		mov r22,r14
 657 02fe 70E0      		ldi r23,lo8(0)
 658 0300 AE01      		movw r20,r28
 659 0302 0E94 0000 		call setLED
 660               	.LM78:
 661 0306 C401      		movw r24,r8
 662 0308 0E94 0000 		call delay_ms
 663 030c 0150      		subi r16,lo8(-(-1))
 664 030e 1040      		sbci r17,hi8(-(-1))
 665               	.LM79:
 666 0310 01F4      		brne .L23
 667               	/* epilogue start */
 668               	.LM80:
 669 0312 DF91      		pop r29
 670 0314 CF91      		pop r28
 671               	.LVL61:
 672 0316 1F91      		pop r17
 673 0318 0F91      		pop r16
 674 031a FF90      		pop r15
 675               	.LVL62:
 676 031c EF90      		pop r14
 677               	.LVL63:
 678 031e DF90      		pop r13
 679 0320 CF90      		pop r12
 680 0322 BF90      		pop r11
 681 0324 AF90      		pop r10
 682 0326 9F90      		pop r9
 683 0328 8F90      		pop r8
 684               	.LVL64:
 685 032a 7F90      		pop r7
 686               	.LVL65:
 687 032c 0895      		ret
 688               	.LFE4:
 690               	.global	sendplane_rand_z
 692               	sendplane_rand_z:
 693               	.LFB5:
 694               	.LM81:
 695               	.LVL66:
 696 032e AF92      		push r10
 697 0330 BF92      		push r11
 698 0332 CF92      		push r12
 699 0334 DF92      		push r13
 700 0336 EF92      		push r14
 701 0338 FF92      		push r15
 702 033a 0F93      		push r16
 703 033c 1F93      		push r17
 704 033e CF93      		push r28
 705 0340 DF93      		push r29
 706               	/* prologue: function */
 707               	/* frame size = 0 */
 708               	/* stack size = 10 */
 709               	.L__stack_usage = 10
 710 0342 082F      		mov r16,r24
 711 0344 7B01      		movw r14,r22
 712 0346 5A01      		movw r10,r20
 713               	.LVL67:
 714               	.LM82:
 715 0348 80E0      		ldi r24,lo8(0)
 716               	.LVL68:
 717 034a 0E94 0000 		call fill
 718               	.LVL69:
 719               	.LM83:
 720 034e 802F      		mov r24,r16
 721 0350 90E0      		ldi r25,lo8(0)
 722 0352 0E94 0000 		call setplane_z
 723               	.LM84:
 724 0356 19E1      		ldi r17,lo8(25)
 725               	.LM85:
 726 0358 C5E0      		ldi r28,lo8(5)
 727 035a D0E0      		ldi r29,hi8(5)
 728               	.LVL70:
 729               	.L31:
 730 035c 0E94 0000 		call rand
 731 0360 BE01      		movw r22,r28
 732 0362 0E94 0000 		call __divmodhi4
 733 0366 C82E      		mov r12,r24
 734               	.LM86:
 735 0368 0E94 0000 		call rand
 736 036c BE01      		movw r22,r28
 737 036e 0E94 0000 		call __divmodhi4
 738 0372 D82E      		mov r13,r24
 739               	.LM87:
 740 0374 8C2D      		mov r24,r12
 741 0376 90E0      		ldi r25,lo8(0)
 742 0378 6D2D      		mov r22,r13
 743 037a 70E0      		ldi r23,lo8(0)
 744 037c 402F      		mov r20,r16
 745 037e 50E0      		ldi r21,lo8(0)
 746 0380 0E94 0000 		call getLED
 747 0384 8823      		tst r24
 748 0386 01F0      		breq .L31
 749               	.LM88:
 750 0388 8C2D      		mov r24,r12
 751 038a 6D2D      		mov r22,r13
 752 038c 402F      		mov r20,r16
 753 038e 9701      		movw r18,r14
 754 0390 0E94 0000 		call sendvoxel_z
 755               	.LM89:
 756 0394 C501      		movw r24,r10
 757 0396 0E94 0000 		call delay_ms
 758               	.LM90:
 759 039a 1150      		subi r17,lo8(-(-1))
 760               	.LVL71:
 761               	.LM91:
 762 039c 01F4      		brne .L31
 763               	/* epilogue start */
 764               	.LM92:
 765 039e DF91      		pop r29
 766 03a0 CF91      		pop r28
 767 03a2 1F91      		pop r17
 768               	.LVL72:
 769 03a4 0F91      		pop r16
 770               	.LVL73:
 771 03a6 FF90      		pop r15
 772 03a8 EF90      		pop r14
 773               	.LVL74:
 774 03aa DF90      		pop r13
 775 03ac CF90      		pop r12
 776 03ae BF90      		pop r11
 777 03b0 AF90      		pop r10
 778               	.LVL75:
 779 03b2 0895      		ret
 780               	.LFE5:
 782               	.global	sendvoxels_rand_z
 784               	sendvoxels_rand_z:
 785               	.LFB6:
 786               	.LM93:
 787               	.LVL76:
 788 03b4 4F92      		push r4
 789 03b6 5F92      		push r5
 790 03b8 6F92      		push r6
 791 03ba 7F92      		push r7
 792 03bc 9F92      		push r9
 793 03be AF92      		push r10
 794 03c0 BF92      		push r11
 795 03c2 CF92      		push r12
 796 03c4 DF92      		push r13
 797 03c6 EF92      		push r14
 798 03c8 FF92      		push r15
 799 03ca 0F93      		push r16
 800 03cc 1F93      		push r17
 801 03ce CF93      		push r28
 802 03d0 DF93      		push r29
 803               	/* prologue: function */
 804               	/* frame size = 0 */
 805               	/* stack size = 15 */
 806               	.L__stack_usage = 15
 807 03d2 2C01      		movw r4,r24
 808 03d4 5B01      		movw r10,r22
 809 03d6 3A01      		movw r6,r20
 810               	.LM94:
 811 03d8 80E0      		ldi r24,lo8(0)
 812               	.LVL77:
 813 03da 0E94 0000 		call fill
 814               	.LVL78:
 815 03de 00E0      		ldi r16,lo8(0)
 816 03e0 10E0      		ldi r17,hi8(0)
 817 03e2 00C0      		rjmp .L33
 818               	.LVL79:
 819               	.L36:
 820               	.LM95:
 821 03e4 0E94 0000 		call rand
 822 03e8 80FD      		sbrc r24,0
 823 03ea 00C0      		rjmp .L34
 824               	.LM96:
 825 03ec C801      		movw r24,r16
 826 03ee BE01      		movw r22,r28
 827 03f0 40E0      		ldi r20,lo8(0)
 828 03f2 50E0      		ldi r21,hi8(0)
 829 03f4 00C0      		rjmp .L44
 830               	.L34:
 831               	.LM97:
 832 03f6 C801      		movw r24,r16
 833 03f8 BE01      		movw r22,r28
 834 03fa 44E0      		ldi r20,lo8(4)
 835 03fc 50E0      		ldi r21,hi8(4)
 836               	.L44:
 837 03fe 0E94 0000 		call setLED
 838 0402 2196      		adiw r28,1
 839               	.LM98:
 840 0404 C530      		cpi r28,5
 841 0406 D105      		cpc r29,__zero_reg__
 842 0408 01F4      		brne .L36
 843 040a 0F5F      		subi r16,lo8(-(1))
 844 040c 1F4F      		sbci r17,hi8(-(1))
 845               	.LM99:
 846 040e 0530      		cpi r16,5
 847 0410 1105      		cpc r17,__zero_reg__
 848 0412 01F4      		brne .L33
 849               	.LM100:
 850 0414 00E0      		ldi r16,lo8(0)
 851               	.LM101:
 852 0416 C5E0      		ldi r28,lo8(5)
 853 0418 D0E0      		ldi r29,hi8(5)
 854 041a 00C0      		rjmp .L37
 855               	.LVL80:
 856               	.L33:
 857               	.LM102:
 858 041c C0E0      		ldi r28,lo8(0)
 859 041e D0E0      		ldi r29,hi8(0)
 860 0420 00C0      		rjmp .L36
 861               	.LVL81:
 862               	.L41:
 863               	.LM103:
 864 0422 0E94 0000 		call rand
 865 0426 7C01      		movw r14,r24
 866               	.LVL82:
 867               	.LM104:
 868 0428 0E94 0000 		call rand
 869               	.LVL83:
 870 042c BE01      		movw r22,r28
 871 042e 0E94 0000 		call __divmodhi4
 872 0432 D82E      		mov r13,r24
 873 0434 182F      		mov r17,r24
 874               	.LVL84:
 875               	.LM105:
 876 0436 8C15      		cp r24,r12
 877 0438 01F0      		breq .L38
 878               	.LM106:
 879 043a C701      		movw r24,r14
 880               	.LVL85:
 881 043c BE01      		movw r22,r28
 882 043e 0E94 0000 		call __divmodhi4
 883 0442 E82E      		mov r14,r24
 884               	.LVL86:
 885 0444 F82E      		mov r15,r24
 886               	.LM107:
 887 0446 8915      		cp r24,r9
 888 0448 01F0      		breq .L38
 889               	.LM108:
 890 044a 90E0      		ldi r25,lo8(0)
 891 044c 6D2D      		mov r22,r13
 892 044e 70E0      		ldi r23,lo8(0)
 893 0450 40E0      		ldi r20,lo8(0)
 894 0452 50E0      		ldi r21,hi8(0)
 895 0454 0E94 0000 		call getLED
 896 0458 8823      		tst r24
 897 045a 01F0      		breq .L39
 898               	.LM109:
 899 045c 8E2D      		mov r24,r14
 900 045e 6D2D      		mov r22,r13
 901 0460 40E0      		ldi r20,lo8(0)
 902 0462 00C0      		rjmp .L45
 903               	.L39:
 904               	.LM110:
 905 0464 8E2D      		mov r24,r14
 906 0466 6D2D      		mov r22,r13
 907 0468 44E0      		ldi r20,lo8(4)
 908               	.L45:
 909 046a 9501      		movw r18,r10
 910 046c 0E94 0000 		call sendvoxel_z
 911               	.LM111:
 912 0470 C301      		movw r24,r6
 913 0472 0E94 0000 		call delay_ms
 914               	.LVL87:
 915 0476 C12E      		mov r12,r17
 916 0478 9F2C      		mov r9,r15
 917               	.LVL88:
 918               	.L38:
 919               	.LM112:
 920 047a 0F5F      		subi r16,lo8(-(1))
 921               	.LVL89:
 922               	.L37:
 923               	.LM113:
 924 047c 802F      		mov r24,r16
 925 047e 90E0      		ldi r25,lo8(0)
 926 0480 8415      		cp r24,r4
 927 0482 9505      		cpc r25,r5
 928 0484 04F0      		brlt .L41
 929               	/* epilogue start */
 930               	.LM114:
 931 0486 DF91      		pop r29
 932 0488 CF91      		pop r28
 933 048a 1F91      		pop r17
 934 048c 0F91      		pop r16
 935               	.LVL90:
 936 048e FF90      		pop r15
 937 0490 EF90      		pop r14
 938 0492 DF90      		pop r13
 939 0494 CF90      		pop r12
 940               	.LVL91:
 941 0496 BF90      		pop r11
 942 0498 AF90      		pop r10
 943               	.LVL92:
 944 049a 9F90      		pop r9
 945               	.LVL93:
 946 049c 7F90      		pop r7
 947 049e 6F90      		pop r6
 948               	.LVL94:
 949 04a0 5F90      		pop r5
 950 04a2 4F90      		pop r4
 951               	.LVL95:
 952 04a4 0895      		ret
 953               	.LFE6:
 955               	.global	random_1
 957               	random_1:
 958               	.LFB7:
 959               	.LM115:
 960               	.LVL96:
 961 04a6 4F92      		push r4
 962 04a8 5F92      		push r5
 963 04aa 6F92      		push r6
 964 04ac 7F92      		push r7
 965 04ae 8F92      		push r8
 966 04b0 9F92      		push r9
 967 04b2 AF92      		push r10
 968 04b4 BF92      		push r11
 969 04b6 CF92      		push r12
 970 04b8 DF92      		push r13
 971 04ba EF92      		push r14
 972 04bc FF92      		push r15
 973 04be 0F93      		push r16
 974 04c0 1F93      		push r17
 975 04c2 CF93      		push r28
 976 04c4 DF93      		push r29
 977               	/* prologue: function */
 978               	/* frame size = 0 */
 979               	/* stack size = 16 */
 980               	.L__stack_usage = 16
 981 04c6 4C01      		movw r8,r24
 982 04c8 3B01      		movw r6,r22
 983 04ca 2A01      		movw r4,r20
 984               	.LVL97:
 985               	.LM116:
 986 04cc 00E0      		ldi r16,lo8(0)
 987 04ce 10E0      		ldi r17,hi8(0)
 988               	.LM117:
 989 04d0 35E0      		ldi r19,lo8(5)
 990 04d2 E32E      		mov r14,r19
 991 04d4 F12C      		mov r15,__zero_reg__
 992               	.LM118:
 993 04d6 00C0      		rjmp .L47
 994               	.LVL98:
 995               	.L48:
 996               	.LM119:
 997 04d8 0E94 0000 		call rand
 998 04dc 6C01      		movw r12,r24
 999 04de 0E94 0000 		call rand
 1000 04e2 5C01      		movw r10,r24
 1001 04e4 0E94 0000 		call rand
 1002 04e8 FC01      		movw r30,r24
 1003 04ea C601      		movw r24,r12
 1004 04ec B701      		movw r22,r14
 1005 04ee 0E94 0000 		call __divmodhi4
 1006 04f2 9C01      		movw r18,r24
 1007 04f4 C501      		movw r24,r10
 1008 04f6 B701      		movw r22,r14
 1009 04f8 0E94 0000 		call __divmodhi4
 1010 04fc 6C01      		movw r12,r24
 1011 04fe CF01      		movw r24,r30
 1012 0500 B701      		movw r22,r14
 1013 0502 0E94 0000 		call __divmodhi4
 1014 0506 AC01      		movw r20,r24
 1015 0508 C901      		movw r24,r18
 1016 050a B601      		movw r22,r12
 1017 050c 0E94 0000 		call setLED
 1018               	.LM120:
 1019 0510 2196      		adiw r28,1
 1020               	.LVL99:
 1021               	.L50:
 1022               	.LM121:
 1023 0512 6C16      		cp r6,r28
 1024 0514 7D06      		cpc r7,r29
 1025 0516 04F4      		brge .L48
 1026               	.LM122:
 1027 0518 C201      		movw r24,r4
 1028 051a 0E94 0000 		call delay_ms
 1029               	.LM123:
 1030 051e 80E0      		ldi r24,lo8(0)
 1031 0520 0E94 0000 		call fill
 1032               	.LM124:
 1033 0524 0F5F      		subi r16,lo8(-(1))
 1034 0526 1F4F      		sbci r17,hi8(-(1))
 1035               	.LVL100:
 1036               	.L47:
 1037               	.LM125:
 1038 0528 0815      		cp r16,r8
 1039 052a 1905      		cpc r17,r9
 1040 052c 04F4      		brge .L46
 1041 052e C0E0      		ldi r28,lo8(0)
 1042 0530 D0E0      		ldi r29,hi8(0)
 1043 0532 00C0      		rjmp .L50
 1044               	.L46:
 1045               	/* epilogue start */
 1046               	.LM126:
 1047 0534 DF91      		pop r29
 1048 0536 CF91      		pop r28
 1049 0538 1F91      		pop r17
 1050 053a 0F91      		pop r16
 1051               	.LVL101:
 1052 053c FF90      		pop r15
 1053 053e EF90      		pop r14
 1054 0540 DF90      		pop r13
 1055 0542 CF90      		pop r12
 1056 0544 BF90      		pop r11
 1057 0546 AF90      		pop r10
 1058 0548 9F90      		pop r9
 1059 054a 8F90      		pop r8
 1060               	.LVL102:
 1061 054c 7F90      		pop r7
 1062 054e 6F90      		pop r6
 1063               	.LVL103:
 1064 0550 5F90      		pop r5
 1065 0552 4F90      		pop r4
 1066               	.LVL104:
 1067 0554 0895      		ret
 1068               	.LFE7:
 1070               	.global	random_2
 1072               	random_2:
 1073               	.LFB8:
 1074               	.LM127:
 1075 0556 CF93      		push r28
 1076 0558 DF93      		push r29
 1077               	/* prologue: function */
 1078               	/* frame size = 0 */
 1079               	/* stack size = 2 */
 1080               	.L__stack_usage = 2
 1081               	.LVL105:
 1082               	.LM128:
 1083 055a C1E0      		ldi r28,lo8(1)
 1084 055c D0E0      		ldi r29,hi8(1)
 1085               	.LVL106:
 1086               	.L52:
 1087               	.LM129:
 1088 055e 85E0      		ldi r24,lo8(5)
 1089 0560 90E0      		ldi r25,hi8(5)
 1090 0562 BE01      		movw r22,r28
 1091 0564 44EF      		ldi r20,lo8(500)
 1092 0566 51E0      		ldi r21,hi8(500)
 1093 0568 0E94 0000 		call random_1
 1094               	.LM130:
 1095 056c 2196      		adiw r28,1
 1096               	.LVL107:
 1097 056e C931      		cpi r28,25
 1098 0570 D105      		cpc r29,__zero_reg__
 1099 0572 01F4      		brne .L52
 1100               	.L54:
 1101               	.LM131:
 1102 0574 85E0      		ldi r24,lo8(5)
 1103 0576 90E0      		ldi r25,hi8(5)
 1104 0578 BE01      		movw r22,r28
 1105 057a 44EF      		ldi r20,lo8(500)
 1106 057c 51E0      		ldi r21,hi8(500)
 1107 057e 0E94 0000 		call random_1
 1108               	.LM132:
 1109 0582 2197      		sbiw r28,1
 1110               	.LVL108:
 1111 0584 01F4      		brne .L54
 1112               	/* epilogue start */
 1113               	.LM133:
 1114 0586 DF91      		pop r29
 1115 0588 CF91      		pop r28
 1116               	.LVL109:
 1117 058a 0895      		ret
 1118               	.LFE8:
 1120               	.global	random_filler
 1122               	random_filler:
 1123               	.LFB9:
 1124               	.LM134:
 1125               	.LVL110:
 1126 058c 2F92      		push r2
 1127 058e 3F92      		push r3
 1128 0590 4F92      		push r4
 1129 0592 5F92      		push r5
 1130 0594 6F92      		push r6
 1131 0596 7F92      		push r7
 1132 0598 8F92      		push r8
 1133 059a 9F92      		push r9
 1134 059c AF92      		push r10
 1135 059e BF92      		push r11
 1136 05a0 CF92      		push r12
 1137 05a2 DF92      		push r13
 1138 05a4 EF92      		push r14
 1139 05a6 FF92      		push r15
 1140 05a8 0F93      		push r16
 1141 05aa 1F93      		push r17
 1142 05ac CF93      		push r28
 1143 05ae DF93      		push r29
 1144               	/* prologue: function */
 1145               	/* frame size = 0 */
 1146               	/* stack size = 18 */
 1147               	.L__stack_usage = 18
 1148 05b0 4C01      		movw r8,r24
 1149 05b2 3B01      		movw r6,r22
 1150 05b4 2A01      		movw r4,r20
 1151 05b6 1901      		movw r2,r18
 1152               	.LVL111:
 1153               	.LM135:
 1154 05b8 00E0      		ldi r16,lo8(0)
 1155 05ba 10E0      		ldi r17,hi8(0)
 1156               	.LM136:
 1157 05bc 45E0      		ldi r20,lo8(5)
 1158 05be E42E      		mov r14,r20
 1159 05c0 F12C      		mov r15,__zero_reg__
 1160               	.LVL112:
 1161               	.LM137:
 1162 05c2 00C0      		rjmp .L58
 1163               	.LVL113:
 1164               	.L59:
 1165               	.LM138:
 1166 05c4 0E94 0000 		call rand
 1167 05c8 6C01      		movw r12,r24
 1168 05ca 0E94 0000 		call rand
 1169 05ce 5C01      		movw r10,r24
 1170 05d0 0E94 0000 		call rand
 1171 05d4 FC01      		movw r30,r24
 1172 05d6 C601      		movw r24,r12
 1173 05d8 B701      		movw r22,r14
 1174 05da 0E94 0000 		call __divmodhi4
 1175 05de 9C01      		movw r18,r24
 1176 05e0 C501      		movw r24,r10
 1177 05e2 B701      		movw r22,r14
 1178 05e4 0E94 0000 		call __divmodhi4
 1179 05e8 6C01      		movw r12,r24
 1180 05ea CF01      		movw r24,r30
 1181 05ec B701      		movw r22,r14
 1182 05ee 0E94 0000 		call __divmodhi4
 1183 05f2 AC01      		movw r20,r24
 1184 05f4 C901      		movw r24,r18
 1185 05f6 B601      		movw r22,r12
 1186 05f8 9101      		movw r18,r2
 1187 05fa 0E94 0000 		call alterLED
 1188               	.LM139:
 1189 05fe 2196      		adiw r28,1
 1190               	.LVL114:
 1191               	.L61:
 1192               	.LM140:
 1193 0600 6C16      		cp r6,r28
 1194 0602 7D06      		cpc r7,r29
 1195 0604 04F4      		brge .L59
 1196               	.LM141:
 1197 0606 C201      		movw r24,r4
 1198 0608 0E94 0000 		call delay_ms
 1199               	.LM142:
 1200 060c 0F5F      		subi r16,lo8(-(1))
 1201 060e 1F4F      		sbci r17,hi8(-(1))
 1202               	.LVL115:
 1203               	.L58:
 1204               	.LM143:
 1205 0610 0815      		cp r16,r8
 1206 0612 1905      		cpc r17,r9
 1207 0614 04F4      		brge .L57
 1208 0616 C0E0      		ldi r28,lo8(0)
 1209 0618 D0E0      		ldi r29,hi8(0)
 1210 061a 00C0      		rjmp .L61
 1211               	.L57:
 1212               	/* epilogue start */
 1213               	.LM144:
 1214 061c DF91      		pop r29
 1215 061e CF91      		pop r28
 1216 0620 1F91      		pop r17
 1217 0622 0F91      		pop r16
 1218               	.LVL116:
 1219 0624 FF90      		pop r15
 1220 0626 EF90      		pop r14
 1221 0628 DF90      		pop r13
 1222 062a CF90      		pop r12
 1223 062c BF90      		pop r11
 1224 062e AF90      		pop r10
 1225 0630 9F90      		pop r9
 1226 0632 8F90      		pop r8
 1227               	.LVL117:
 1228 0634 7F90      		pop r7
 1229 0636 6F90      		pop r6
 1230               	.LVL118:
 1231 0638 5F90      		pop r5
 1232 063a 4F90      		pop r4
 1233               	.LVL119:
 1234 063c 3F90      		pop r3
 1235 063e 2F90      		pop r2
 1236               	.LVL120:
 1237 0640 0895      		ret
 1238               	.LFE9:
 1240               	.global	random_filler2
 1242               	random_filler2:
 1243               	.LFB10:
 1244               	.LM145:
 1245               	.LVL121:
 1246 0642 2F92      		push r2
 1247 0644 3F92      		push r3
 1248 0646 4F92      		push r4
 1249 0648 5F92      		push r5
 1250 064a 6F92      		push r6
 1251 064c 7F92      		push r7
 1252 064e 8F92      		push r8
 1253 0650 9F92      		push r9
 1254 0652 AF92      		push r10
 1255 0654 BF92      		push r11
 1256 0656 CF92      		push r12
 1257 0658 DF92      		push r13
 1258 065a EF92      		push r14
 1259 065c FF92      		push r15
 1260 065e 0F93      		push r16
 1261 0660 1F93      		push r17
 1262 0662 CF93      		push r28
 1263 0664 DF93      		push r29
 1264               	/* prologue: function */
 1265               	/* frame size = 0 */
 1266               	/* stack size = 18 */
 1267               	.L__stack_usage = 18
 1268 0666 1C01      		movw r2,r24
 1269 0668 EB01      		movw r28,r22
 1270               	.LVL122:
 1271               	.LM146:
 1272 066a 00E0      		ldi r16,lo8(0)
 1273 066c 10E0      		ldi r17,hi8(0)
 1274               	.LM147:
 1275 066e 55E0      		ldi r21,lo8(5)
 1276 0670 E52E      		mov r14,r21
 1277 0672 F12C      		mov r15,__zero_reg__
 1278               	.LVL123:
 1279               	.L66:
 1280 0674 0E94 0000 		call rand
 1281 0678 B701      		movw r22,r14
 1282 067a 0E94 0000 		call __divmodhi4
 1283 067e 5C01      		movw r10,r24
 1284 0680 782E      		mov r7,r24
 1285 0682 6B2C      		mov r6,r11
 1286               	.LVL124:
 1287               	.LM148:
 1288 0684 0E94 0000 		call rand
 1289               	.LVL125:
 1290 0688 B701      		movw r22,r14
 1291 068a 0E94 0000 		call __divmodhi4
 1292 068e 6C01      		movw r12,r24
 1293 0690 582E      		mov r5,r24
 1294 0692 4D2C      		mov r4,r13
 1295               	.LVL126:
 1296               	.LM149:
 1297 0694 0E94 0000 		call rand
 1298               	.LVL127:
 1299 0698 B701      		movw r22,r14
 1300 069a 0E94 0000 		call __divmodhi4
 1301 069e AC01      		movw r20,r24
 1302 06a0 982E      		mov r9,r24
 1303 06a2 852E      		mov r8,r21
 1304               	.LVL128:
 1305               	.LM150:
 1306 06a4 2097      		sbiw r28,0
 1307 06a6 01F4      		brne .L63
 1308               	.LM151:
 1309 06a8 C501      		movw r24,r10
 1310               	.LVL129:
 1311 06aa B601      		movw r22,r12
 1312 06ac 0E94 0000 		call getLED
 1313               	.LVL130:
 1314 06b0 8130      		cpi r24,lo8(1)
 1315 06b2 01F4      		brne .L65
 1316 06b4 00C0      		rjmp .L64
 1317               	.L63:
 1318               	.LM152:
 1319 06b6 C130      		cpi r28,1
 1320 06b8 D105      		cpc r29,__zero_reg__
 1321 06ba 01F4      		brne .L65
 1322               	.LM153:
 1323 06bc C501      		movw r24,r10
 1324 06be B601      		movw r22,r12
 1325 06c0 0E94 0000 		call getLED
 1326 06c4 8823      		tst r24
 1327 06c6 01F4      		brne .L65
 1328               	.L64:
 1329               	.LM154:
 1330 06c8 872D      		mov r24,r7
 1331 06ca 962D      		mov r25,r6
 1332 06cc 652D      		mov r22,r5
 1333 06ce 742D      		mov r23,r4
 1334 06d0 492D      		mov r20,r9
 1335 06d2 582D      		mov r21,r8
 1336 06d4 9E01      		movw r18,r28
 1337 06d6 0E94 0000 		call alterLED
 1338               	.LM155:
 1339 06da C101      		movw r24,r2
 1340 06dc 0E94 0000 		call delay_ms
 1341               	.LM156:
 1342 06e0 0F5F      		subi r16,lo8(-(1))
 1343 06e2 1F4F      		sbci r17,hi8(-(1))
 1344               	.LVL131:
 1345               	.L65:
 1346               	.LM157:
 1347 06e4 0C37      		cpi r16,124
 1348 06e6 1105      		cpc r17,__zero_reg__
 1349 06e8 04F0      		brlt .L66
 1350               	/* epilogue start */
 1351               	.LM158:
 1352 06ea DF91      		pop r29
 1353 06ec CF91      		pop r28
 1354               	.LVL132:
 1355 06ee 1F91      		pop r17
 1356 06f0 0F91      		pop r16
 1357               	.LVL133:
 1358 06f2 FF90      		pop r15
 1359 06f4 EF90      		pop r14
 1360 06f6 DF90      		pop r13
 1361               	.LVL134:
 1362 06f8 CF90      		pop r12
 1363 06fa BF90      		pop r11
 1364               	.LVL135:
 1365 06fc AF90      		pop r10
 1366 06fe 9F90      		pop r9
 1367               	.LVL136:
 1368 0700 8F90      		pop r8
 1369 0702 7F90      		pop r7
 1370               	.LVL137:
 1371 0704 6F90      		pop r6
 1372 0706 5F90      		pop r5
 1373               	.LVL138:
 1374 0708 4F90      		pop r4
 1375 070a 3F90      		pop r3
 1376 070c 2F90      		pop r2
 1377               	.LVL139:
 1378 070e 0895      		ret
 1379               	.LFE10:
 1381               	.global	planeflip
 1383               	planeflip:
 1384               	.LFB11:
 1385               	.LM159:
 1386               	.LVL140:
 1387               	/* prologue: function */
 1388               	/* frame size = 0 */
 1389               	/* stack size = 0 */
 1390               	.L__stack_usage = 0
 1391               	/* epilogue start */
 1392               	.LM160:
 1393 0710 0895      		ret
 1394               	.LFE11:
 1396               	.global	loadbar
 1398               	loadbar:
 1399               	.LFB12:
 1400               	.LM161:
 1401               	.LVL141:
 1402 0712 FF92      		push r15
 1403 0714 0F93      		push r16
 1404 0716 1F93      		push r17
 1405 0718 CF93      		push r28
 1406 071a DF93      		push r29
 1407               	/* prologue: function */
 1408               	/* frame size = 0 */
 1409               	/* stack size = 5 */
 1410               	.L__stack_usage = 5
 1411 071c 8C01      		movw r16,r24
 1412               	.LM162:
 1413 071e 80E0      		ldi r24,lo8(0)
 1414               	.LVL142:
 1415 0720 0E94 0000 		call fill
 1416               	.LVL143:
 1417               	.LM163:
 1418 0724 C0E0      		ldi r28,lo8(0)
 1419 0726 D0E0      		ldi r29,hi8(0)
 1420               	.LM164:
 1421 0728 FF24      		clr r15
 1422 072a FA94      		dec r15
 1423               	.LVL144:
 1424               	.L70:
 1425               	.LM165:
 1426 072c FE01      		movw r30,r28
 1427 072e EE0F      		lsl r30
 1428 0730 FF1F      		rol r31
 1429 0732 EE0F      		lsl r30
 1430 0734 FF1F      		rol r31
 1431 0736 EC0F      		add r30,r28
 1432 0738 FD1F      		adc r31,r29
 1433 073a E050      		subi r30,lo8(-(cube))
 1434 073c F040      		sbci r31,hi8(-(cube))
 1435 073e F082      		st Z,r15
 1436               	.LVL145:
 1437 0740 F182      		std Z+1,r15
 1438               	.LVL146:
 1439 0742 F282      		std Z+2,r15
 1440               	.LVL147:
 1441 0744 F382      		std Z+3,r15
 1442               	.LVL148:
 1443 0746 F482      		std Z+4,r15
 1444               	.LVL149:
 1445               	.LM166:
 1446 0748 C801      		movw r24,r16
 1447 074a 0E94 0000 		call delay_ms
 1448               	.LM167:
 1449 074e 2196      		adiw r28,1
 1450               	.LVL150:
 1451 0750 C530      		cpi r28,5
 1452 0752 D105      		cpc r29,__zero_reg__
 1453 0754 01F4      		brne .L70
 1454               	.LM168:
 1455 0756 C801      		movw r24,r16
 1456 0758 880F      		lsl r24
 1457 075a 991F      		rol r25
 1458 075c 800F      		add r24,r16
 1459 075e 911F      		adc r25,r17
 1460 0760 0E94 0000 		call delay_ms
 1461               	.LVL151:
 1462               	.LM169:
 1463 0764 C0E0      		ldi r28,lo8(0)
 1464 0766 D0E0      		ldi r29,hi8(0)
 1465               	.LVL152:
 1466               	.L71:
 1467               	.LM170:
 1468 0768 FE01      		movw r30,r28
 1469 076a EE0F      		lsl r30
 1470 076c FF1F      		rol r31
 1471 076e EE0F      		lsl r30
 1472 0770 FF1F      		rol r31
 1473 0772 EC0F      		add r30,r28
 1474 0774 FD1F      		adc r31,r29
 1475 0776 E050      		subi r30,lo8(-(cube))
 1476 0778 F040      		sbci r31,hi8(-(cube))
 1477 077a 1082      		st Z,__zero_reg__
 1478               	.LVL153:
 1479 077c 1182      		std Z+1,__zero_reg__
 1480               	.LVL154:
 1481 077e 1282      		std Z+2,__zero_reg__
 1482               	.LVL155:
 1483 0780 1382      		std Z+3,__zero_reg__
 1484               	.LVL156:
 1485 0782 1482      		std Z+4,__zero_reg__
 1486               	.LVL157:
 1487               	.LM171:
 1488 0784 C801      		movw r24,r16
 1489 0786 0E94 0000 		call delay_ms
 1490               	.LM172:
 1491 078a 2196      		adiw r28,1
 1492               	.LVL158:
 1493 078c C530      		cpi r28,5
 1494 078e D105      		cpc r29,__zero_reg__
 1495 0790 01F4      		brne .L71
 1496               	/* epilogue start */
 1497               	.LM173:
 1498 0792 DF91      		pop r29
 1499 0794 CF91      		pop r28
 1500               	.LVL159:
 1501 0796 1F91      		pop r17
 1502 0798 0F91      		pop r16
 1503               	.LVL160:
 1504 079a FF90      		pop r15
 1505 079c 0895      		ret
 1506               	.LFE12:
 1508               	.global	flyplane
 1510               	flyplane:
 1511               	.LFB13:
 1512               	.LM174:
 1513               	.LVL161:
 1514 079e AF92      		push r10
 1515 07a0 BF92      		push r11
 1516 07a2 CF92      		push r12
 1517 07a4 DF92      		push r13
 1518 07a6 EF92      		push r14
 1519 07a8 FF92      		push r15
 1520 07aa 0F93      		push r16
 1521 07ac 1F93      		push r17
 1522 07ae CF93      		push r28
 1523 07b0 DF93      		push r29
 1524               	/* prologue: function */
 1525               	/* frame size = 0 */
 1526               	/* stack size = 10 */
 1527               	.L__stack_usage = 10
 1528 07b2 F82E      		mov r15,r24
 1529 07b4 E62E      		mov r14,r22
 1530 07b6 5A01      		movw r10,r20
 1531               	.LM175:
 1532 07b8 80E0      		ldi r24,lo8(0)
 1533               	.LVL162:
 1534 07ba 0E94 0000 		call fill
 1535               	.LVL163:
 1536               	.LM176:
 1537 07be 00E0      		ldi r16,lo8(0)
 1538 07c0 10E0      		ldi r17,hi8(0)
 1539               	.LM177:
 1540 07c2 84E0      		ldi r24,lo8(4)
 1541 07c4 C82E      		mov r12,r24
 1542 07c6 D12C      		mov r13,__zero_reg__
 1543               	.LVL164:
 1544               	.L76:
 1545               	.LM178:
 1546 07c8 EE20      		tst r14
 1547 07ca 01F0      		breq .L79
 1548               	.LM179:
 1549 07cc E601      		movw r28,r12
 1550 07ce C01B      		sub r28,r16
 1551 07d0 D10B      		sbc r29,r17
 1552               	.LVL165:
 1553 07d2 00C0      		rjmp .L75
 1554               	.LVL166:
 1555               	.L79:
 1556               	.LM180:
 1557 07d4 E801      		movw r28,r16
 1558               	.L75:
 1559               	.LVL167:
 1560               	.LM181:
 1561 07d6 8F2D      		mov r24,r15
 1562 07d8 BE01      		movw r22,r28
 1563 07da 41E0      		ldi r20,lo8(1)
 1564 07dc 50E0      		ldi r21,hi8(1)
 1565 07de 0E94 0000 		call setplane
 1566               	.LM182:
 1567 07e2 C501      		movw r24,r10
 1568 07e4 0E94 0000 		call delay_ms
 1569               	.LM183:
 1570 07e8 8F2D      		mov r24,r15
 1571 07ea BE01      		movw r22,r28
 1572 07ec 40E0      		ldi r20,lo8(0)
 1573 07ee 50E0      		ldi r21,hi8(0)
 1574 07f0 0E94 0000 		call setplane
 1575               	.LM184:
 1576 07f4 0F5F      		subi r16,lo8(-(1))
 1577 07f6 1F4F      		sbci r17,hi8(-(1))
 1578               	.LVL168:
 1579 07f8 0530      		cpi r16,5
 1580 07fa 1105      		cpc r17,__zero_reg__
 1581 07fc 01F4      		brne .L76
 1582 07fe 03E0      		ldi r16,lo8(3)
 1583 0800 10E0      		ldi r17,hi8(3)
 1584               	.LVL169:
 1585               	.LM185:
 1586 0802 B4E0      		ldi r27,lo8(4)
 1587 0804 CB2E      		mov r12,r27
 1588 0806 D12C      		mov r13,__zero_reg__
 1589               	.L78:
 1590               	.LM186:
 1591 0808 EE20      		tst r14
 1592 080a 01F0      		breq .L80
 1593               	.LM187:
 1594 080c E601      		movw r28,r12
 1595               	.LVL170:
 1596 080e C01B      		sub r28,r16
 1597 0810 D10B      		sbc r29,r17
 1598               	.LVL171:
 1599 0812 00C0      		rjmp .L77
 1600               	.L80:
 1601               	.LM188:
 1602 0814 E801      		movw r28,r16
 1603               	.LVL172:
 1604               	.L77:
 1605               	.LM189:
 1606 0816 8F2D      		mov r24,r15
 1607 0818 BE01      		movw r22,r28
 1608 081a 41E0      		ldi r20,lo8(1)
 1609 081c 50E0      		ldi r21,hi8(1)
 1610 081e 0E94 0000 		call setplane
 1611               	.LM190:
 1612 0822 C501      		movw r24,r10
 1613 0824 0E94 0000 		call delay_ms
 1614               	.LM191:
 1615 0828 8F2D      		mov r24,r15
 1616 082a BE01      		movw r22,r28
 1617 082c 40E0      		ldi r20,lo8(0)
 1618 082e 50E0      		ldi r21,hi8(0)
 1619 0830 0E94 0000 		call setplane
 1620               	.LM192:
 1621 0834 0150      		subi r16,lo8(-(-1))
 1622 0836 1040      		sbci r17,hi8(-(-1))
 1623               	.LVL173:
 1624 0838 8FEF      		ldi r24,hi8(-1)
 1625 083a 0F3F      		cpi r16,lo8(-1)
 1626 083c 1807      		cpc r17,r24
 1627 083e 01F4      		brne .L78
 1628               	/* epilogue start */
 1629               	.LM193:
 1630 0840 DF91      		pop r29
 1631 0842 CF91      		pop r28
 1632               	.LVL174:
 1633 0844 1F91      		pop r17
 1634 0846 0F91      		pop r16
 1635               	.LVL175:
 1636 0848 FF90      		pop r15
 1637               	.LVL176:
 1638 084a EF90      		pop r14
 1639               	.LVL177:
 1640 084c DF90      		pop r13
 1641 084e CF90      		pop r12
 1642 0850 BF90      		pop r11
 1643 0852 AF90      		pop r10
 1644               	.LVL178:
 1645 0854 0895      		ret
 1646               	.LFE13:
 1648               	.global	blinky
 1650               	blinky:
 1651               	.LFB14:
 1652               	.LM194:
 1653 0856 CF93      		push r28
 1654 0858 DF93      		push r29
 1655               	/* prologue: function */
 1656               	/* frame size = 0 */
 1657               	/* stack size = 2 */
 1658               	.L__stack_usage = 2
 1659               	.LM195:
 1660 085a 80E0      		ldi r24,lo8(0)
 1661 085c 0E94 0000 		call fill
 1662               	.LM196:
 1663 0860 80ED      		ldi r24,lo8(2000)
 1664 0862 97E0      		ldi r25,hi8(2000)
 1665 0864 0E94 0000 		call delay_ms
 1666               	.LVL179:
 1667 0868 C4E0      		ldi r28,lo8(4)
 1668 086a D0E0      		ldi r29,hi8(4)
 1669               	.LVL180:
 1670               	.L84:
 1671               	.LM197:
 1672 086c 8FE1      		ldi r24,lo8(31)
 1673 086e 0E94 0000 		call fill
 1674               	.LM198:
 1675 0872 82E3      		ldi r24,lo8(50)
 1676 0874 90E0      		ldi r25,hi8(50)
 1677 0876 0E94 0000 		call delay_ms
 1678               	.LM199:
 1679 087a 80E0      		ldi r24,lo8(0)
 1680 087c 0E94 0000 		call fill
 1681               	.LM200:
 1682 0880 8CED      		ldi r24,lo8(1500)
 1683 0882 95E0      		ldi r25,hi8(1500)
 1684 0884 0E94 0000 		call delay_ms
 1685               	.LM201:
 1686 0888 8FE1      		ldi r24,lo8(31)
 1687 088a 0E94 0000 		call fill
 1688               	.LM202:
 1689 088e 8EE1      		ldi r24,lo8(30)
 1690 0890 90E0      		ldi r25,hi8(30)
 1691 0892 0E94 0000 		call delay_ms
 1692               	.LM203:
 1693 0896 80E0      		ldi r24,lo8(0)
 1694 0898 0E94 0000 		call fill
 1695               	.LM204:
 1696 089c 88E5      		ldi r24,lo8(7000)
 1697 089e 9BE1      		ldi r25,hi8(7000)
 1698 08a0 0E94 0000 		call delay_ms
 1699 08a4 2197      		sbiw r28,1
 1700               	.LM205:
 1701 08a6 01F4      		brne .L84
 1702               	/* epilogue start */
 1703               	.LM206:
 1704 08a8 DF91      		pop r29
 1705 08aa CF91      		pop r28
 1706 08ac 0895      		ret
 1707               	.LFE14:
 1709               	.global	blinky2
 1711               	blinky2:
 1712               	.LFB15:
 1713               	.LM207:
 1714 08ae AF92      		push r10
 1715 08b0 BF92      		push r11
 1716 08b2 CF92      		push r12
 1717 08b4 DF92      		push r13
 1718 08b6 EF92      		push r14
 1719 08b8 FF92      		push r15
 1720 08ba 0F93      		push r16
 1721 08bc 1F93      		push r17
 1722 08be CF93      		push r28
 1723 08c0 DF93      		push r29
 1724               	/* prologue: function */
 1725               	/* frame size = 0 */
 1726               	/* stack size = 10 */
 1727               	.L__stack_usage = 10
 1728               	.LM208:
 1729 08c2 80E0      		ldi r24,lo8(0)
 1730 08c4 0E94 0000 		call fill
 1731               	.LVL181:
 1732 08c8 05E0      		ldi r16,lo8(5)
 1733 08ca 10E0      		ldi r17,hi8(5)
 1734               	.LM209:
 1735 08cc 36EF      		ldi r19,lo8(-10)
 1736 08ce E32E      		mov r14,r19
 1737 08d0 3FEF      		ldi r19,hi8(-10)
 1738 08d2 F32E      		mov r15,r19
 1739 08d4 28EE      		ldi r18,lo8(1000)
 1740 08d6 C22E      		mov r12,r18
 1741 08d8 23E0      		ldi r18,hi8(1000)
 1742 08da D22E      		mov r13,r18
 1743               	.LM210:
 1744 08dc 9FEE      		ldi r25,lo8(751)
 1745 08de A92E      		mov r10,r25
 1746 08e0 92E0      		ldi r25,hi8(751)
 1747 08e2 B92E      		mov r11,r25
 1748 08e4 00C0      		rjmp .L87
 1749               	.LVL182:
 1750               	.L88:
 1751               	.LM211:
 1752 08e6 80E0      		ldi r24,lo8(0)
 1753 08e8 0E94 0000 		call fill
 1754               	.LM212:
 1755 08ec CE01      		movw r24,r28
 1756 08ee 0E94 0000 		call delay_ms
 1757               	.LM213:
 1758 08f2 8FE1      		ldi r24,lo8(31)
 1759 08f4 0E94 0000 		call fill
 1760               	.LM214:
 1761 08f8 84E6      		ldi r24,lo8(100)
 1762 08fa 90E0      		ldi r25,hi8(100)
 1763 08fc 0E94 0000 		call delay_ms
 1764               	.LM215:
 1765 0900 CE01      		movw r24,r28
 1766 0902 B701      		movw r22,r14
 1767 0904 0E94 0000 		call __divmodhi4
 1768 0908 C601      		movw r24,r12
 1769 090a 0E94 0000 		call __divmodhi4
 1770 090e 6F50      		subi r22,lo8(-(-15))
 1771 0910 7040      		sbci r23,hi8(-(-15))
 1772 0912 C60F      		add r28,r22
 1773 0914 D71F      		adc r29,r23
 1774               	.LVL183:
 1775               	.LM216:
 1776 0916 1C16      		cp __zero_reg__,r28
 1777 0918 1D06      		cpc __zero_reg__,r29
 1778 091a 04F0      		brlt .L88
 1779               	.LM217:
 1780 091c 88EE      		ldi r24,lo8(1000)
 1781 091e 93E0      		ldi r25,hi8(1000)
 1782 0920 0E94 0000 		call delay_ms
 1783               	.LVL184:
 1784               	.LM218:
 1785 0924 CEEE      		ldi r28,lo8(750)
 1786 0926 D2E0      		ldi r29,hi8(750)
 1787               	.LVL185:
 1788               	.L89:
 1789               	.LM219:
 1790 0928 80E0      		ldi r24,lo8(0)
 1791 092a 0E94 0000 		call fill
 1792               	.LM220:
 1793 092e C501      		movw r24,r10
 1794 0930 8C1B      		sub r24,r28
 1795 0932 9D0B      		sbc r25,r29
 1796 0934 0E94 0000 		call delay_ms
 1797               	.LM221:
 1798 0938 8FE1      		ldi r24,lo8(31)
 1799 093a 0E94 0000 		call fill
 1800               	.LM222:
 1801 093e 84E6      		ldi r24,lo8(100)
 1802 0940 90E0      		ldi r25,hi8(100)
 1803 0942 0E94 0000 		call delay_ms
 1804               	.LM223:
 1805 0946 CE01      		movw r24,r28
 1806 0948 B701      		movw r22,r14
 1807 094a 0E94 0000 		call __divmodhi4
 1808 094e C601      		movw r24,r12
 1809 0950 0E94 0000 		call __divmodhi4
 1810 0954 6F50      		subi r22,lo8(-(-15))
 1811 0956 7040      		sbci r23,hi8(-(-15))
 1812 0958 C60F      		add r28,r22
 1813 095a D71F      		adc r29,r23
 1814               	.LVL186:
 1815               	.LM224:
 1816 095c 1C16      		cp __zero_reg__,r28
 1817 095e 1D06      		cpc __zero_reg__,r29
 1818 0960 04F0      		brlt .L89
 1819 0962 0150      		subi r16,lo8(-(-1))
 1820 0964 1040      		sbci r17,hi8(-(-1))
 1821               	.LM225:
 1822 0966 01F0      		breq .L86
 1823               	.LVL187:
 1824               	.L87:
 1825               	.LM226:
 1826 0968 CEEE      		ldi r28,lo8(750)
 1827 096a D2E0      		ldi r29,hi8(750)
 1828 096c 00C0      		rjmp .L88
 1829               	.LVL188:
 1830               	.L86:
 1831               	/* epilogue start */
 1832               	.LM227:
 1833 096e DF91      		pop r29
 1834 0970 CF91      		pop r28
 1835               	.LVL189:
 1836 0972 1F91      		pop r17
 1837 0974 0F91      		pop r16
 1838 0976 FF90      		pop r15
 1839 0978 EF90      		pop r14
 1840 097a DF90      		pop r13
 1841 097c CF90      		pop r12
 1842 097e BF90      		pop r11
 1843 0980 AF90      		pop r10
 1844 0982 0895      		ret
 1845               	.LFE15:
 1847               	.global	animateCharacter
 1849               	animateCharacter:
 1850               	.LFB16:
 1851               	.LM228:
 1852               	.LVL190:
 1853 0984 0F93      		push r16
 1854 0986 1F93      		push r17
 1855 0988 CF93      		push r28
 1856 098a DF93      		push r29
 1857               	/* prologue: function */
 1858               	/* frame size = 0 */
 1859               	/* stack size = 4 */
 1860               	.L__stack_usage = 4
 1861               	.LM229:
 1862 098c 0E94 0000 		call letterToInt
 1863               	.LVL191:
 1864 0990 8C01      		movw r16,r24
 1865               	.LVL192:
 1866               	.LM230:
 1867 0992 C0E0      		ldi r28,lo8(0)
 1868 0994 D0E0      		ldi r29,hi8(0)
 1869               	.LVL193:
 1870               	.L94:
 1871               	.LM231:
 1872 0996 C801      		movw r24,r16
 1873 0998 BE01      		movw r22,r28
 1874 099a 0E94 0000 		call getLetter
 1875               	.LM232:
 1876 099e 80E5      		ldi r24,lo8(80)
 1877 09a0 90E0      		ldi r25,hi8(80)
 1878 09a2 0E94 0000 		call delay_ms
 1879               	.LM233:
 1880 09a6 2196      		adiw r28,1
 1881               	.LVL194:
 1882 09a8 C430      		cpi r28,4
 1883 09aa D105      		cpc r29,__zero_reg__
 1884 09ac 01F4      		brne .L94
 1885               	.LM234:
 1886 09ae C801      		movw r24,r16
 1887 09b0 64E0      		ldi r22,lo8(4)
 1888 09b2 70E0      		ldi r23,hi8(4)
 1889 09b4 0E94 0000 		call getLetter
 1890               	.LM235:
 1891 09b8 84EF      		ldi r24,lo8(500)
 1892 09ba 91E0      		ldi r25,hi8(500)
 1893 09bc 0E94 0000 		call delay_ms
 1894               	/* epilogue start */
 1895               	.LM236:
 1896 09c0 DF91      		pop r29
 1897 09c2 CF91      		pop r28
 1898               	.LVL195:
 1899 09c4 1F91      		pop r17
 1900 09c6 0F91      		pop r16
 1901               	.LVL196:
 1902 09c8 0895      		ret
 1903               	.LFE16:
 1905               	.global	writeBlank
 1907               	writeBlank:
 1908               	.LFB17:
 1909               	.LM237:
 1910               	/* prologue: function */
 1911               	/* frame size = 0 */
 1912               	/* stack size = 0 */
 1913               	.L__stack_usage = 0
 1914               	.LM238:
 1915 09ca 80E0      		ldi r24,lo8(0)
 1916 09cc 0E94 0000 		call fill
 1917               	.LM239:
 1918 09d0 84E8      		ldi r24,lo8(900)
 1919 09d2 93E0      		ldi r25,hi8(900)
 1920 09d4 0E94 0000 		call delay_ms
 1921               	/* epilogue start */
 1922               	.LM240:
 1923 09d8 0895      		ret
 1924               	.LFE17:
 1926               	.global	LCHamburg
 1928               	LCHamburg:
 1929               	.LFB18:
 1930               	.LM241:
 1931               	/* prologue: function */
 1932               	/* frame size = 0 */
 1933               	/* stack size = 0 */
 1934               	.L__stack_usage = 0
 1935               	.LM242:
 1936 09da 85E4      		ldi r24,lo8(69)
 1937 09dc 0E94 0000 		call animateCharacter
 1938               	.LM243:
 1939 09e0 85E4      		ldi r24,lo8(69)
 1940 09e2 0E94 0000 		call animateCharacter
 1941               	.LM244:
 1942 09e6 83E5      		ldi r24,lo8(83)
 1943 09e8 0E94 0000 		call animateCharacter
 1944               	.LM245:
 1945 09ec 84E5      		ldi r24,lo8(84)
 1946 09ee 0E94 0000 		call animateCharacter
 1947               	.LM246:
 1948 09f2 85E4      		ldi r24,lo8(69)
 1949 09f4 0E94 0000 		call animateCharacter
 1950               	.LM247:
 1951 09f8 83E4      		ldi r24,lo8(67)
 1952 09fa 0E94 0000 		call animateCharacter
 1953               	.LM248:
 1954 09fe 0E94 0000 		call writeBlank
 1955               	.LM249:
 1956 0a02 8CE4      		ldi r24,lo8(76)
 1957 0a04 0E94 0000 		call animateCharacter
 1958               	.LM250:
 1959 0a08 83E4      		ldi r24,lo8(67)
 1960 0a0a 0E94 0000 		call animateCharacter
 1961               	.LM251:
 1962 0a0e 0E94 0000 		call writeBlank
 1963               	.LM252:
 1964 0a12 88E4      		ldi r24,lo8(72)
 1965 0a14 0E94 0000 		call animateCharacter
 1966               	.LM253:
 1967 0a18 81E4      		ldi r24,lo8(65)
 1968 0a1a 0E94 0000 		call animateCharacter
 1969               	.LM254:
 1970 0a1e 8DE4      		ldi r24,lo8(77)
 1971 0a20 0E94 0000 		call animateCharacter
 1972               	.LM255:
 1973 0a24 82E4      		ldi r24,lo8(66)
 1974 0a26 0E94 0000 		call animateCharacter
 1975               	.LM256:
 1976 0a2a 85E5      		ldi r24,lo8(85)
 1977 0a2c 0E94 0000 		call animateCharacter
 1978               	.LM257:
 1979 0a30 82E5      		ldi r24,lo8(82)
 1980 0a32 0E94 0000 		call animateCharacter
 1981               	.LM258:
 1982 0a36 87E4      		ldi r24,lo8(71)
 1983 0a38 0E94 0000 		call animateCharacter
 1984               	/* epilogue start */
 1985               	.LM259:
 1986 0a3c 0895      		ret
 1987               	.LFE18:
 1989               	.global	shiftBack2
 1991               	shiftBack2:
 1992               	.LFB19:
 1993               	.LM260:
 1994 0a3e CF92      		push r12
 1995 0a40 DF92      		push r13
 1996 0a42 EF92      		push r14
 1997 0a44 FF92      		push r15
 1998 0a46 0F93      		push r16
 1999 0a48 1F93      		push r17
 2000 0a4a CF93      		push r28
 2001 0a4c DF93      		push r29
 2002               	/* prologue: function */
 2003               	/* frame size = 0 */
 2004               	/* stack size = 8 */
 2005               	.L__stack_usage = 8
 2006               	.LVL197:
 2007               	.LM261:
 2008 0a4e 04E0      		ldi r16,lo8(4)
 2009 0a50 10E0      		ldi r17,hi8(4)
 2010 0a52 00C0      		rjmp .L99
 2011               	.LVL198:
 2012               	.L102:
 2013               	.LM262:
 2014 0a54 C701      		movw r24,r14
 2015 0a56 60E0      		ldi r22,lo8(0)
 2016 0a58 70E0      		ldi r23,hi8(0)
 2017 0a5a AE01      		movw r20,r28
 2018 0a5c 0E94 0000 		call getLED
 2019 0a60 8823      		tst r24
 2020 0a62 01F0      		breq .L100
 2021               	.LM263:
 2022 0a64 C601      		movw r24,r12
 2023 0a66 60E0      		ldi r22,lo8(0)
 2024 0a68 70E0      		ldi r23,hi8(0)
 2025 0a6a AE01      		movw r20,r28
 2026 0a6c 0E94 0000 		call setLED
 2027 0a70 00C0      		rjmp .L101
 2028               	.L100:
 2029               	.LM264:
 2030 0a72 C601      		movw r24,r12
 2031 0a74 60E0      		ldi r22,lo8(0)
 2032 0a76 70E0      		ldi r23,hi8(0)
 2033 0a78 AE01      		movw r20,r28
 2034 0a7a 0E94 0000 		call clrLED
 2035               	.L101:
 2036               	.LM265:
 2037 0a7e 2196      		adiw r28,1
 2038               	.LVL199:
 2039 0a80 C530      		cpi r28,5
 2040 0a82 D105      		cpc r29,__zero_reg__
 2041 0a84 01F4      		brne .L102
 2042               	.LVL200:
 2043               	.LM266:
 2044 0a86 0150      		subi r16,lo8(-(-1))
 2045 0a88 1040      		sbci r17,hi8(-(-1))
 2046               	.LM267:
 2047 0a8a 01F0      		breq .L98
 2048               	.LVL201:
 2049               	.L99:
 2050 0a8c 6801      		movw r12,r16
 2051               	.LVL202:
 2052               	.LM268:
 2053 0a8e C0E0      		ldi r28,lo8(0)
 2054 0a90 D0E0      		ldi r29,hi8(0)
 2055               	.LM269:
 2056 0a92 7801      		movw r14,r16
 2057 0a94 0894      		sec
 2058 0a96 E108      		sbc r14,__zero_reg__
 2059 0a98 F108      		sbc r15,__zero_reg__
 2060 0a9a 00C0      		rjmp .L102
 2061               	.LVL203:
 2062               	.L98:
 2063               	/* epilogue start */
 2064               	.LM270:
 2065 0a9c DF91      		pop r29
 2066 0a9e CF91      		pop r28
 2067               	.LVL204:
 2068 0aa0 1F91      		pop r17
 2069 0aa2 0F91      		pop r16
 2070 0aa4 FF90      		pop r15
 2071 0aa6 EF90      		pop r14
 2072 0aa8 DF90      		pop r13
 2073 0aaa CF90      		pop r12
 2074 0aac 0895      		ret
 2075               	.LFE19:
 2077               	.global	shiftLeft
 2079               	shiftLeft:
 2080               	.LFB20:
 2081               	.LM271:
 2082 0aae EF92      		push r14
 2083 0ab0 FF92      		push r15
 2084 0ab2 0F93      		push r16
 2085 0ab4 1F93      		push r17
 2086 0ab6 CF93      		push r28
 2087 0ab8 DF93      		push r29
 2088               	/* prologue: function */
 2089               	/* frame size = 0 */
 2090               	/* stack size = 6 */
 2091               	.L__stack_usage = 6
 2092               	.LVL205:
 2093               	.LM272:
 2094 0aba C0E0      		ldi r28,lo8(0)
 2095 0abc D0E0      		ldi r29,hi8(0)
 2096 0abe 00C0      		rjmp .L106
 2097               	.LVL206:
 2098               	.L109:
 2099               	.LM273:
 2100 0ac0 80E0      		ldi r24,lo8(0)
 2101 0ac2 90E0      		ldi r25,hi8(0)
 2102 0ac4 B701      		movw r22,r14
 2103 0ac6 A801      		movw r20,r16
 2104 0ac8 0E94 0000 		call getLED
 2105 0acc 8823      		tst r24
 2106 0ace 01F0      		breq .L107
 2107               	.LM274:
 2108 0ad0 80E0      		ldi r24,lo8(0)
 2109 0ad2 90E0      		ldi r25,hi8(0)
 2110 0ad4 BE01      		movw r22,r28
 2111 0ad6 A801      		movw r20,r16
 2112 0ad8 0E94 0000 		call setLED
 2113 0adc 00C0      		rjmp .L108
 2114               	.L107:
 2115               	.LM275:
 2116 0ade 80E0      		ldi r24,lo8(0)
 2117 0ae0 90E0      		ldi r25,hi8(0)
 2118 0ae2 BE01      		movw r22,r28
 2119 0ae4 A801      		movw r20,r16
 2120 0ae6 0E94 0000 		call clrLED
 2121               	.L108:
 2122               	.LM276:
 2123 0aea 0F5F      		subi r16,lo8(-(1))
 2124 0aec 1F4F      		sbci r17,hi8(-(1))
 2125               	.LVL207:
 2126 0aee 0530      		cpi r16,5
 2127 0af0 1105      		cpc r17,__zero_reg__
 2128 0af2 01F4      		brne .L109
 2129 0af4 2196      		adiw r28,1
 2130               	.LVL208:
 2131               	.LM277:
 2132 0af6 C430      		cpi r28,4
 2133 0af8 D105      		cpc r29,__zero_reg__
 2134 0afa 01F0      		breq .L110
 2135               	.LVL209:
 2136               	.L106:
 2137               	.LM278:
 2138 0afc 00E0      		ldi r16,lo8(0)
 2139 0afe 10E0      		ldi r17,hi8(0)
 2140               	.LM279:
 2141 0b00 7E01      		movw r14,r28
 2142 0b02 0894      		sec
 2143 0b04 E11C      		adc r14,__zero_reg__
 2144 0b06 F11C      		adc r15,__zero_reg__
 2145 0b08 00C0      		rjmp .L109
 2146               	.LVL210:
 2147               	.L110:
 2148               	.LM280:
 2149 0b0a 0E94 0000 		call shiftBack2
 2150               	.LM281:
 2151 0b0e 86E9      		ldi r24,lo8(150)
 2152 0b10 90E0      		ldi r25,hi8(150)
 2153 0b12 0E94 0000 		call delay_ms
 2154               	/* epilogue start */
 2155               	.LM282:
 2156 0b16 DF91      		pop r29
 2157 0b18 CF91      		pop r28
 2158               	.LVL211:
 2159 0b1a 1F91      		pop r17
 2160 0b1c 0F91      		pop r16
 2161               	.LVL212:
 2162 0b1e FF90      		pop r15
 2163 0b20 EF90      		pop r14
 2164 0b22 0895      		ret
 2165               	.LFE20:
 2167               	.global	writer
 2169               	writer:
 2170               	.LFB21:
 2171               	.LM283:
 2172               	.LVL213:
 2173 0b24 AF92      		push r10
 2174 0b26 BF92      		push r11
 2175 0b28 CF92      		push r12
 2176 0b2a DF92      		push r13
 2177 0b2c EF92      		push r14
 2178 0b2e FF92      		push r15
 2179 0b30 0F93      		push r16
 2180 0b32 1F93      		push r17
 2181 0b34 DF93      		push r29
 2182 0b36 CF93      		push r28
 2183 0b38 0F92      		push __tmp_reg__
 2184 0b3a CDB7      		in r28,__SP_L__
 2185 0b3c DEB7      		in r29,__SP_H__
 2186               	/* prologue: function */
 2187               	/* frame size = 1 */
 2188               	/* stack size = 11 */
 2189               	.L__stack_usage = 11
 2190 0b3e 082F      		mov r16,r24
 2191 0b40 5B01      		movw r10,r22
 2192               	.LM284:
 2193 0b42 80E0      		ldi r24,lo8(0)
 2194               	.LVL214:
 2195 0b44 9983      		std Y+1,r25
 2196 0b46 0E94 0000 		call fill
 2197               	.LVL215:
 2198 0b4a 9981      		ldd r25,Y+1
 2199 0b4c E02E      		mov r14,r16
 2200 0b4e F92E      		mov r15,r25
 2201               	.LBB19:
 2202               	.LM285:
 2203 0b50 00E0      		ldi r16,lo8(0)
 2204 0b52 10E0      		ldi r17,hi8(0)
 2205 0b54 43E0      		ldi r20,lo8(3)
 2206 0b56 C42E      		mov r12,r20
 2207 0b58 D12C      		mov r13,__zero_reg__
 2208 0b5a CA0C      		add r12,r10
 2209 0b5c DB1C      		adc r13,r11
 2210 0b5e 00C0      		rjmp .L113
 2211               	.LVL216:
 2212               	.L151:
 2213               	.LBB20:
 2214               	.LM286:
 2215 0b60 F701      		movw r30,r14
 2216 0b62 8191      		ld r24,Z+
 2217 0b64 7F01      		movw r14,r30
 2218               	.LVL217:
 2219               	.LM287:
 2220 0b66 0A15      		cp r16,r10
 2221 0b68 1B05      		cpc r17,r11
 2222 0b6a 00F0      		brlo .+2
 2223 0b6c 00C0      		rjmp .L114
 2224               	.LM288:
 2225 0b6e 90E0      		ldi r25,lo8(0)
 2226 0b70 8197      		sbiw r24,33
 2227 0b72 8A33      		cpi r24,58
 2228 0b74 9105      		cpc r25,__zero_reg__
 2229 0b76 00F0      		brlo .+2
 2230 0b78 00C0      		rjmp .L114
 2231 0b7a 8050      		subi r24,lo8(-(gs(.L149)))
 2232 0b7c 9040      		sbci r25,hi8(-(gs(.L149)))
 2233 0b7e FC01      		movw r30,r24
 2234               	.LVL218:
 2235 0b80 EE0F      		lsl r30
 2236 0b82 FF1F      		rol r31
 2237 0b84 0590      		lpm __tmp_reg__,Z+
 2238 0b86 F491      		lpm r31,Z
 2239 0b88 E02D      		mov r30,__tmp_reg__
 2240 0b8a 0994      		ijmp
 2241               		.data
 2242               		.section .progmem.gcc_sw_table, "a", @progbits
 2243               		.p2align 1
 2244               	.L149:
 2245               		.data
 2246               		.section .progmem.gcc_sw_table, "a", @progbits
 2247               		.p2align 1
 2248 0000 0000      		.word gs(.L115)
 2249 0002 0000      		.word gs(.L114)
 2250 0004 0000      		.word gs(.L114)
 2251 0006 0000      		.word gs(.L114)
 2252 0008 0000      		.word gs(.L114)
 2253 000a 0000      		.word gs(.L114)
 2254 000c 0000      		.word gs(.L116)
 2255 000e 0000      		.word gs(.L117)
 2256 0010 0000      		.word gs(.L118)
 2257 0012 0000      		.word gs(.L114)
 2258 0014 0000      		.word gs(.L114)
 2259 0016 0000      		.word gs(.L119)
 2260 0018 0000      		.word gs(.L114)
 2261 001a 0000      		.word gs(.L120)
 2262 001c 0000      		.word gs(.L114)
 2263 001e 0000      		.word gs(.L114)
 2264 0020 0000      		.word gs(.L114)
 2265 0022 0000      		.word gs(.L114)
 2266 0024 0000      		.word gs(.L114)
 2267 0026 0000      		.word gs(.L114)
 2268 0028 0000      		.word gs(.L114)
 2269 002a 0000      		.word gs(.L114)
 2270 002c 0000      		.word gs(.L114)
 2271 002e 0000      		.word gs(.L114)
 2272 0030 0000      		.word gs(.L114)
 2273 0032 0000      		.word gs(.L114)
 2274 0034 0000      		.word gs(.L114)
 2275 0036 0000      		.word gs(.L114)
 2276 0038 0000      		.word gs(.L121)
 2277 003a 0000      		.word gs(.L114)
 2278 003c 0000      		.word gs(.L122)
 2279 003e 0000      		.word gs(.L114)
 2280 0040 0000      		.word gs(.L123)
 2281 0042 0000      		.word gs(.L124)
 2282 0044 0000      		.word gs(.L125)
 2283 0046 0000      		.word gs(.L126)
 2284 0048 0000      		.word gs(.L127)
 2285 004a 0000      		.word gs(.L128)
 2286 004c 0000      		.word gs(.L129)
 2287 004e 0000      		.word gs(.L130)
 2288 0050 0000      		.word gs(.L131)
 2289 0052 0000      		.word gs(.L132)
 2290 0054 0000      		.word gs(.L133)
 2291 0056 0000      		.word gs(.L134)
 2292 0058 0000      		.word gs(.L135)
 2293 005a 0000      		.word gs(.L136)
 2294 005c 0000      		.word gs(.L137)
 2295 005e 0000      		.word gs(.L138)
 2296 0060 0000      		.word gs(.L139)
 2297 0062 0000      		.word gs(.L140)
 2298 0064 0000      		.word gs(.L141)
 2299 0066 0000      		.word gs(.L142)
 2300 0068 0000      		.word gs(.L143)
 2301 006a 0000      		.word gs(.L144)
 2302 006c 0000      		.word gs(.L145)
 2303 006e 0000      		.word gs(.L146)
 2304 0070 0000      		.word gs(.L147)
 2305 0072 0000      		.word gs(.L148)
 2306               		.text
 2307               	.L123:
 2308               	.LM289:
 2309 0b8c 0E94 0000 		call _writeA
 2310               	.LVL219:
 2311               	.LM290:
 2312 0b90 00C0      		rjmp .L150
 2313               	.LVL220:
 2314               	.L124:
 2315               	.LM291:
 2316 0b92 0E94 0000 		call _writeB
 2317               	.LVL221:
 2318               	.LM292:
 2319 0b96 00C0      		rjmp .L150
 2320               	.LVL222:
 2321               	.L125:
 2322               	.LM293:
 2323 0b98 0E94 0000 		call _writeC
 2324               	.LVL223:
 2325               	.LM294:
 2326 0b9c 00C0      		rjmp .L150
 2327               	.LVL224:
 2328               	.L126:
 2329               	.LM295:
 2330 0b9e 0E94 0000 		call _writeD
 2331               	.LVL225:
 2332               	.LM296:
 2333 0ba2 00C0      		rjmp .L150
 2334               	.LVL226:
 2335               	.L127:
 2336               	.LM297:
 2337 0ba4 0E94 0000 		call _writeE
 2338               	.LVL227:
 2339               	.LM298:
 2340 0ba8 00C0      		rjmp .L150
 2341               	.LVL228:
 2342               	.L128:
 2343               	.LM299:
 2344 0baa 0E94 0000 		call _writeF
 2345               	.LVL229:
 2346               	.LM300:
 2347 0bae 00C0      		rjmp .L150
 2348               	.LVL230:
 2349               	.L129:
 2350               	.LM301:
 2351 0bb0 0E94 0000 		call _writeG
 2352               	.LVL231:
 2353               	.LM302:
 2354 0bb4 00C0      		rjmp .L150
 2355               	.LVL232:
 2356               	.L130:
 2357               	.LM303:
 2358 0bb6 0E94 0000 		call _writeH
 2359               	.LVL233:
 2360               	.LM304:
 2361 0bba 00C0      		rjmp .L150
 2362               	.LVL234:
 2363               	.L131:
 2364               	.LM305:
 2365 0bbc 0E94 0000 		call _writeI
 2366               	.LVL235:
 2367               	.LM306:
 2368 0bc0 00C0      		rjmp .L150
 2369               	.LVL236:
 2370               	.L132:
 2371               	.LM307:
 2372 0bc2 0E94 0000 		call _writeJ
 2373               	.LVL237:
 2374               	.LM308:
 2375 0bc6 00C0      		rjmp .L150
 2376               	.LVL238:
 2377               	.L133:
 2378               	.LM309:
 2379 0bc8 0E94 0000 		call _writeK
 2380               	.LVL239:
 2381               	.LM310:
 2382 0bcc 00C0      		rjmp .L150
 2383               	.LVL240:
 2384               	.L134:
 2385               	.LM311:
 2386 0bce 0E94 0000 		call _writeL
 2387               	.LVL241:
 2388               	.LM312:
 2389 0bd2 00C0      		rjmp .L150
 2390               	.LVL242:
 2391               	.L135:
 2392               	.LM313:
 2393 0bd4 0E94 0000 		call _writeM
 2394               	.LVL243:
 2395               	.LM314:
 2396 0bd8 00C0      		rjmp .L150
 2397               	.LVL244:
 2398               	.L136:
 2399               	.LM315:
 2400 0bda 0E94 0000 		call _writeN
 2401               	.LVL245:
 2402               	.LM316:
 2403 0bde 00C0      		rjmp .L150
 2404               	.LVL246:
 2405               	.L137:
 2406               	.LM317:
 2407 0be0 0E94 0000 		call _writeO
 2408               	.LVL247:
 2409               	.LM318:
 2410 0be4 00C0      		rjmp .L150
 2411               	.LVL248:
 2412               	.L138:
 2413               	.LM319:
 2414 0be6 0E94 0000 		call _writeP
 2415               	.LVL249:
 2416               	.LM320:
 2417 0bea 00C0      		rjmp .L150
 2418               	.LVL250:
 2419               	.L139:
 2420               	.LM321:
 2421 0bec 0E94 0000 		call _writeQ
 2422               	.LVL251:
 2423               	.LM322:
 2424 0bf0 00C0      		rjmp .L150
 2425               	.LVL252:
 2426               	.L140:
 2427               	.LM323:
 2428 0bf2 0E94 0000 		call _writeR
 2429               	.LVL253:
 2430               	.LM324:
 2431 0bf6 00C0      		rjmp .L150
 2432               	.LVL254:
 2433               	.L141:
 2434               	.LM325:
 2435 0bf8 0E94 0000 		call _writeS
 2436               	.LVL255:
 2437               	.LM326:
 2438 0bfc 00C0      		rjmp .L150
 2439               	.LVL256:
 2440               	.L142:
 2441               	.LM327:
 2442 0bfe 0E94 0000 		call _writeT
 2443               	.LVL257:
 2444               	.LM328:
 2445 0c02 00C0      		rjmp .L150
 2446               	.LVL258:
 2447               	.L143:
 2448               	.LM329:
 2449 0c04 0E94 0000 		call _writeU
 2450               	.LVL259:
 2451               	.LM330:
 2452 0c08 00C0      		rjmp .L150
 2453               	.LVL260:
 2454               	.L144:
 2455               	.LM331:
 2456 0c0a 0E94 0000 		call _writeV
 2457               	.LVL261:
 2458               	.LM332:
 2459 0c0e 00C0      		rjmp .L150
 2460               	.LVL262:
 2461               	.L145:
 2462               	.LM333:
 2463 0c10 0E94 0000 		call _writeW
 2464               	.LVL263:
 2465               	.LM334:
 2466 0c14 00C0      		rjmp .L150
 2467               	.LVL264:
 2468               	.L146:
 2469               	.LM335:
 2470 0c16 0E94 0000 		call _writeX
 2471               	.LVL265:
 2472               	.LM336:
 2473 0c1a 00C0      		rjmp .L150
 2474               	.LVL266:
 2475               	.L147:
 2476               	.LM337:
 2477 0c1c 0E94 0000 		call _writeY
 2478               	.LVL267:
 2479               	.LM338:
 2480 0c20 00C0      		rjmp .L150
 2481               	.LVL268:
 2482               	.L148:
 2483               	.LM339:
 2484 0c22 0E94 0000 		call _writeZ
 2485               	.LVL269:
 2486               	.LM340:
 2487 0c26 00C0      		rjmp .L150
 2488               	.LVL270:
 2489               	.L122:
 2490               	.LM341:
 2491 0c28 0E94 0000 		call _writeQM
 2492               	.LVL271:
 2493               	.LM342:
 2494 0c2c 00C0      		rjmp .L150
 2495               	.LVL272:
 2496               	.L116:
 2497               	.LM343:
 2498 0c2e 0E94 0000 		call _writeAPO
 2499               	.LVL273:
 2500               	.LM344:
 2501 0c32 00C0      		rjmp .L150
 2502               	.LVL274:
 2503               	.L115:
 2504               	.LM345:
 2505 0c34 0E94 0000 		call _writeEM
 2506               	.LVL275:
 2507               	.LM346:
 2508 0c38 00C0      		rjmp .L150
 2509               	.LVL276:
 2510               	.L117:
 2511               	.LM347:
 2512 0c3a 0E94 0000 		call _writeBRKO
 2513               	.LVL277:
 2514               	.LM348:
 2515 0c3e 00C0      		rjmp .L150
 2516               	.LVL278:
 2517               	.L118:
 2518               	.LM349:
 2519 0c40 0E94 0000 		call _writeBRKC
 2520               	.LVL279:
 2521               	.LM350:
 2522 0c44 00C0      		rjmp .L150
 2523               	.LVL280:
 2524               	.L121:
 2525               	.LM351:
 2526 0c46 0E94 0000 		call _writeEQL
 2527               	.LVL281:
 2528               	.LM352:
 2529 0c4a 00C0      		rjmp .L150
 2530               	.LVL282:
 2531               	.L120:
 2532               	.LM353:
 2533 0c4c 0E94 0000 		call _writeDOT
 2534               	.LVL283:
 2535               	.LM354:
 2536 0c50 00C0      		rjmp .L150
 2537               	.LVL284:
 2538               	.L119:
 2539               	.LM355:
 2540 0c52 0E94 0000 		call _writeCOM
 2541               	.LVL285:
 2542               	.LM356:
 2543 0c56 00C0      		rjmp .L150
 2544               	.LVL286:
 2545               	.L114:
 2546               	.LM357:
 2547 0c58 0E94 0000 		call _writeEMP
 2548               	.LVL287:
 2549               	.L150:
 2550               	.LBE20:
 2551               	.LM358:
 2552 0c5c 0F5F      		subi r16,lo8(-(1))
 2553 0c5e 1F4F      		sbci r17,hi8(-(1))
 2554               	.LVL288:
 2555               	.L113:
 2556               	.LM359:
 2557 0c60 0C15      		cp r16,r12
 2558 0c62 1D05      		cpc r17,r13
 2559 0c64 00F4      		brsh .+2
 2560 0c66 00C0      		rjmp .L151
 2561               	/* epilogue start */
 2562               	.LBE19:
 2563               	.LM360:
 2564 0c68 0F90      		pop __tmp_reg__
 2565 0c6a CF91      		pop r28
 2566 0c6c DF91      		pop r29
 2567 0c6e 1F91      		pop r17
 2568 0c70 0F91      		pop r16
 2569               	.LVL289:
 2570 0c72 FF90      		pop r15
 2571 0c74 EF90      		pop r14
 2572 0c76 DF90      		pop r13
 2573 0c78 CF90      		pop r12
 2574 0c7a BF90      		pop r11
 2575 0c7c AF90      		pop r10
 2576               	.LVL290:
 2577 0c7e 0895      		ret
 2578               	.LFE21:
 2580               	.global	create_cube
 2582               	create_cube:
 2583               	.LFB24:
 2584               	.LM361:
 2585               	.LVL291:
 2586 0c80 AF92      		push r10
 2587 0c82 BF92      		push r11
 2588 0c84 CF92      		push r12
 2589 0c86 DF92      		push r13
 2590 0c88 EF92      		push r14
 2591 0c8a FF92      		push r15
 2592 0c8c 0F93      		push r16
 2593 0c8e 1F93      		push r17
 2594 0c90 CF93      		push r28
 2595 0c92 DF93      		push r29
 2596               	/* prologue: function */
 2597               	/* frame size = 0 */
 2598               	/* stack size = 10 */
 2599               	.L__stack_usage = 10
 2600 0c94 EC01      		movw r28,r24
 2601 0c96 8B01      		movw r16,r22
 2602 0c98 7A01      		movw r14,r20
 2603               	.LM362:
 2604 0c9a 80E0      		ldi r24,lo8(0)
 2605               	.LVL292:
 2606 0c9c 0E94 0000 		call fill
 2607               	.LVL293:
 2608               	.LM363:
 2609 0ca0 CE01      		movw r24,r28
 2610 0ca2 B801      		movw r22,r16
 2611 0ca4 A701      		movw r20,r14
 2612 0ca6 0E94 0000 		call setLED
 2613               	.LM364:
 2614 0caa 5701      		movw r10,r14
 2615 0cac 0894      		sec
 2616 0cae A11C      		adc r10,__zero_reg__
 2617 0cb0 B11C      		adc r11,__zero_reg__
 2618 0cb2 CE01      		movw r24,r28
 2619 0cb4 B801      		movw r22,r16
 2620 0cb6 A501      		movw r20,r10
 2621 0cb8 0E94 0000 		call setLED
 2622               	.LM365:
 2623 0cbc 6801      		movw r12,r16
 2624 0cbe 0894      		sec
 2625 0cc0 C11C      		adc r12,__zero_reg__
 2626 0cc2 D11C      		adc r13,__zero_reg__
 2627 0cc4 CE01      		movw r24,r28
 2628 0cc6 B601      		movw r22,r12
 2629 0cc8 A701      		movw r20,r14
 2630 0cca 0E94 0000 		call setLED
 2631               	.LM366:
 2632 0cce CE01      		movw r24,r28
 2633 0cd0 B601      		movw r22,r12
 2634 0cd2 A501      		movw r20,r10
 2635 0cd4 0E94 0000 		call setLED
 2636               	.LM367:
 2637 0cd8 2196      		adiw r28,1
 2638               	.LVL294:
 2639 0cda CE01      		movw r24,r28
 2640 0cdc B801      		movw r22,r16
 2641 0cde A701      		movw r20,r14
 2642 0ce0 0E94 0000 		call setLED
 2643               	.LM368:
 2644 0ce4 CE01      		movw r24,r28
 2645 0ce6 B801      		movw r22,r16
 2646 0ce8 A501      		movw r20,r10
 2647 0cea 0E94 0000 		call setLED
 2648               	.LM369:
 2649 0cee CE01      		movw r24,r28
 2650 0cf0 B601      		movw r22,r12
 2651 0cf2 A701      		movw r20,r14
 2652 0cf4 0E94 0000 		call setLED
 2653               	.LM370:
 2654 0cf8 CE01      		movw r24,r28
 2655 0cfa B601      		movw r22,r12
 2656 0cfc A501      		movw r20,r10
 2657 0cfe 0E94 0000 		call setLED
 2658               	/* epilogue start */
 2659               	.LM371:
 2660 0d02 DF91      		pop r29
 2661 0d04 CF91      		pop r28
 2662               	.LVL295:
 2663 0d06 1F91      		pop r17
 2664 0d08 0F91      		pop r16
 2665               	.LVL296:
 2666 0d0a FF90      		pop r15
 2667 0d0c EF90      		pop r14
 2668               	.LVL297:
 2669 0d0e DF90      		pop r13
 2670 0d10 CF90      		pop r12
 2671               	.LVL298:
 2672 0d12 BF90      		pop r11
 2673 0d14 AF90      		pop r10
 2674               	.LVL299:
 2675 0d16 0895      		ret
 2676               	.LFE24:
 2678               	.global	little_cube
 2680               	little_cube:
 2681               	.LFB23:
 2682               	.LM372:
 2683 0d18 AF92      		push r10
 2684 0d1a BF92      		push r11
 2685 0d1c CF92      		push r12
 2686 0d1e DF92      		push r13
 2687 0d20 EF92      		push r14
 2688 0d22 FF92      		push r15
 2689 0d24 0F93      		push r16
 2690 0d26 1F93      		push r17
 2691 0d28 CF93      		push r28
 2692 0d2a DF93      		push r29
 2693               	/* prologue: function */
 2694               	/* frame size = 0 */
 2695               	/* stack size = 10 */
 2696               	.L__stack_usage = 10
 2697               	.LVL300:
 2698               	.LM373:
 2699 0d2c C0E0      		ldi r28,lo8(0)
 2700 0d2e D0E0      		ldi r29,hi8(0)
 2701               	.LM374:
 2702 0d30 63E0      		ldi r22,lo8(3)
 2703 0d32 C62E      		mov r12,r22
 2704 0d34 D12C      		mov r13,__zero_reg__
 2705               	.LM375:
 2706 0d36 52E0      		ldi r21,lo8(2)
 2707 0d38 A52E      		mov r10,r21
 2708 0d3a B12C      		mov r11,__zero_reg__
 2709               	.LM376:
 2710 0d3c 01E0      		ldi r16,lo8(1)
 2711 0d3e 10E0      		ldi r17,hi8(1)
 2712               	.LVL301:
 2713               	.L166:
 2714               	.LM377:
 2715 0d40 6091 0000 		lds r22,y.2211
 2716 0d44 7091 0000 		lds r23,y.2211+1
 2717 0d48 4091 0000 		lds r20,z.2212
 2718 0d4c 5091 0000 		lds r21,z.2212+1
 2719 0d50 8091 0000 		lds r24,x.2210
 2720 0d54 9091 0000 		lds r25,x.2210+1
 2721 0d58 0E94 0000 		call create_cube
 2722               	.LM378:
 2723 0d5c 0E94 0000 		call rand
 2724 0d60 7C01      		movw r14,r24
 2725               	.LVL302:
 2726               	.LM379:
 2727 0d62 0E94 0000 		call rand
 2728               	.LVL303:
 2729 0d66 B601      		movw r22,r12
 2730 0d68 0E94 0000 		call __divmodhi4
 2731 0d6c 9C01      		movw r18,r24
 2732               	.LVL304:
 2733               	.LM380:
 2734 0d6e C701      		movw r24,r14
 2735               	.LVL305:
 2736 0d70 B501      		movw r22,r10
 2737 0d72 0E94 0000 		call __divmodhi4
 2738               	.LM381:
 2739 0d76 0097      		sbiw r24,0
 2740 0d78 01F4      		brne .L154
 2741               	.LM382:
 2742 0d7a 2115      		cp r18,__zero_reg__
 2743 0d7c 3105      		cpc r19,__zero_reg__
 2744 0d7e 01F4      		brne .L155
 2745               	.LM383:
 2746 0d80 8091 0000 		lds r24,x.2210
 2747 0d84 9091 0000 		lds r25,x.2210+1
 2748 0d88 9C01      		movw r18,r24
 2749               	.LVL306:
 2750 0d8a 2F5F      		subi r18,lo8(-(1))
 2751 0d8c 3F4F      		sbci r19,hi8(-(1))
 2752 0d8e 2430      		cpi r18,4
 2753 0d90 3105      		cpc r19,__zero_reg__
 2754 0d92 00F4      		brsh .L168
 2755               	.LM384:
 2756 0d94 3093 0000 		sts x.2210+1,r19
 2757 0d98 2093 0000 		sts x.2210,r18
 2758 0d9c 00C0      		rjmp .L157
 2759               	.LVL307:
 2760               	.L155:
 2761               	.LM385:
 2762 0d9e 2130      		cpi r18,1
 2763 0da0 3105      		cpc r19,__zero_reg__
 2764 0da2 01F4      		brne .L158
 2765               	.LM386:
 2766 0da4 8091 0000 		lds r24,y.2211
 2767 0da8 9091 0000 		lds r25,y.2211+1
 2768 0dac 9C01      		movw r18,r24
 2769               	.LVL308:
 2770 0dae 2F5F      		subi r18,lo8(-(1))
 2771 0db0 3F4F      		sbci r19,hi8(-(1))
 2772 0db2 2430      		cpi r18,4
 2773 0db4 3105      		cpc r19,__zero_reg__
 2774 0db6 00F4      		brsh .L170
 2775 0db8 00C0      		rjmp .L164
 2776               	.LVL309:
 2777               	.L158:
 2778               	.LM387:
 2779 0dba 2230      		cpi r18,2
 2780 0dbc 3105      		cpc r19,__zero_reg__
 2781 0dbe 01F0      		breq .+2
 2782 0dc0 00C0      		rjmp .L157
 2783               	.LM388:
 2784 0dc2 8091 0000 		lds r24,z.2212
 2785 0dc6 9091 0000 		lds r25,z.2212+1
 2786 0dca 9C01      		movw r18,r24
 2787               	.LVL310:
 2788 0dcc 2F5F      		subi r18,lo8(-(1))
 2789 0dce 3F4F      		sbci r19,hi8(-(1))
 2790 0dd0 2430      		cpi r18,4
 2791 0dd2 3105      		cpc r19,__zero_reg__
 2792 0dd4 00F4      		brsh .L169
 2793               	.LM389:
 2794 0dd6 3093 0000 		sts z.2212+1,r19
 2795 0dda 2093 0000 		sts z.2212,r18
 2796 0dde 00C0      		rjmp .L157
 2797               	.LVL311:
 2798               	.L154:
 2799               	.LM390:
 2800 0de0 2115      		cp r18,__zero_reg__
 2801 0de2 3105      		cpc r19,__zero_reg__
 2802 0de4 01F4      		brne .L161
 2803               	.LM391:
 2804 0de6 8091 0000 		lds r24,x.2210
 2805 0dea 9091 0000 		lds r25,x.2210+1
 2806 0dee 0097      		sbiw r24,0
 2807 0df0 01F0      		breq .L162
 2808               	.LVL312:
 2809               	.L168:
 2810               	.LM392:
 2811 0df2 0197      		sbiw r24,1
 2812 0df4 9093 0000 		sts x.2210+1,r25
 2813 0df8 8093 0000 		sts x.2210,r24
 2814 0dfc 00C0      		rjmp .L157
 2815               	.LVL313:
 2816               	.L162:
 2817               	.LM393:
 2818 0dfe 1093 0000 		sts x.2210+1,r17
 2819 0e02 0093 0000 		sts x.2210,r16
 2820 0e06 00C0      		rjmp .L157
 2821               	.L161:
 2822               	.LM394:
 2823 0e08 2130      		cpi r18,1
 2824 0e0a 3105      		cpc r19,__zero_reg__
 2825 0e0c 01F4      		brne .L163
 2826               	.LM395:
 2827 0e0e 8091 0000 		lds r24,y.2211
 2828 0e12 9091 0000 		lds r25,y.2211+1
 2829 0e16 0097      		sbiw r24,0
 2830 0e18 01F0      		breq .L164
 2831               	.LVL314:
 2832               	.L170:
 2833               	.LM396:
 2834 0e1a 0197      		sbiw r24,1
 2835 0e1c 9093 0000 		sts y.2211+1,r25
 2836 0e20 8093 0000 		sts y.2211,r24
 2837 0e24 00C0      		rjmp .L157
 2838               	.L164:
 2839               	.LM397:
 2840 0e26 3093 0000 		sts y.2211+1,r19
 2841 0e2a 2093 0000 		sts y.2211,r18
 2842 0e2e 00C0      		rjmp .L157
 2843               	.LVL315:
 2844               	.L163:
 2845               	.LM398:
 2846 0e30 2230      		cpi r18,2
 2847 0e32 3105      		cpc r19,__zero_reg__
 2848 0e34 01F4      		brne .L157
 2849               	.LM399:
 2850 0e36 8091 0000 		lds r24,z.2212
 2851 0e3a 9091 0000 		lds r25,z.2212+1
 2852 0e3e 0097      		sbiw r24,0
 2853 0e40 01F0      		breq .L165
 2854               	.LVL316:
 2855               	.L169:
 2856               	.LM400:
 2857 0e42 0197      		sbiw r24,1
 2858 0e44 9093 0000 		sts z.2212+1,r25
 2859 0e48 8093 0000 		sts z.2212,r24
 2860 0e4c 00C0      		rjmp .L157
 2861               	.LVL317:
 2862               	.L165:
 2863               	.LM401:
 2864 0e4e 1093 0000 		sts z.2212+1,r17
 2865 0e52 0093 0000 		sts z.2212,r16
 2866               	.LVL318:
 2867               	.L157:
 2868               	.LM402:
 2869 0e56 8FE3      		ldi r24,lo8(63)
 2870 0e58 90E0      		ldi r25,hi8(63)
 2871 0e5a 0E94 0000 		call delay_ms
 2872               	.LM403:
 2873 0e5e 2196      		adiw r28,1
 2874               	.LVL319:
 2875 0e60 C233      		cpi r28,50
 2876 0e62 D105      		cpc r29,__zero_reg__
 2877 0e64 01F0      		breq .+2
 2878 0e66 00C0      		rjmp .L166
 2879               	/* epilogue start */
 2880               	.LM404:
 2881 0e68 DF91      		pop r29
 2882 0e6a CF91      		pop r28
 2883               	.LVL320:
 2884 0e6c 1F91      		pop r17
 2885 0e6e 0F91      		pop r16
 2886 0e70 FF90      		pop r15
 2887 0e72 EF90      		pop r14
 2888               	.LVL321:
 2889 0e74 DF90      		pop r13
 2890 0e76 CF90      		pop r12
 2891 0e78 BF90      		pop r11
 2892 0e7a AF90      		pop r10
 2893 0e7c 0895      		ret
 2894               	.LFE23:
 2896               	.global	pumping_heart
 2898               	pumping_heart:
 2899               	.LFB25:
 2900               	.LM405:
 2901 0e7e CF92      		push r12
 2902 0e80 DF92      		push r13
 2903 0e82 EF92      		push r14
 2904 0e84 FF92      		push r15
 2905 0e86 0F93      		push r16
 2906 0e88 1F93      		push r17
 2907 0e8a CF93      		push r28
 2908 0e8c DF93      		push r29
 2909               	/* prologue: function */
 2910               	/* frame size = 0 */
 2911               	/* stack size = 8 */
 2912               	.L__stack_usage = 8
 2913               	.LVL322:
 2914               	.LM406:
 2915 0e8e C7E0      		ldi r28,lo8(7)
 2916 0e90 D0E0      		ldi r29,hi8(7)
 2917               	.LVL323:
 2918               	.L172:
 2919               	.LM407:
 2920 0e92 80E0      		ldi r24,lo8(0)
 2921 0e94 0E94 0000 		call fill
 2922               	.LM408:
 2923 0e98 82E0      		ldi r24,lo8(2)
 2924 0e9a 90E0      		ldi r25,hi8(2)
 2925 0e9c 62E0      		ldi r22,lo8(2)
 2926 0e9e 70E0      		ldi r23,hi8(2)
 2927 0ea0 42E0      		ldi r20,lo8(2)
 2928 0ea2 50E0      		ldi r21,hi8(2)
 2929 0ea4 0E94 0000 		call setLED
 2930               	.LM409:
 2931 0ea8 82E0      		ldi r24,lo8(2)
 2932 0eaa 90E0      		ldi r25,hi8(2)
 2933 0eac 63E0      		ldi r22,lo8(3)
 2934 0eae 70E0      		ldi r23,hi8(3)
 2935 0eb0 43E0      		ldi r20,lo8(3)
 2936 0eb2 50E0      		ldi r21,hi8(3)
 2937 0eb4 0E94 0000 		call setLED
 2938               	.LM410:
 2939 0eb8 82E0      		ldi r24,lo8(2)
 2940 0eba 90E0      		ldi r25,hi8(2)
 2941 0ebc 61E0      		ldi r22,lo8(1)
 2942 0ebe 70E0      		ldi r23,hi8(1)
 2943 0ec0 43E0      		ldi r20,lo8(3)
 2944 0ec2 50E0      		ldi r21,hi8(3)
 2945 0ec4 0E94 0000 		call setLED
 2946               	.LM411:
 2947 0ec8 82E0      		ldi r24,lo8(2)
 2948 0eca 90E0      		ldi r25,hi8(2)
 2949 0ecc 64E0      		ldi r22,lo8(4)
 2950 0ece 70E0      		ldi r23,hi8(4)
 2951 0ed0 42E0      		ldi r20,lo8(2)
 2952 0ed2 50E0      		ldi r21,hi8(2)
 2953 0ed4 0E94 0000 		call setLED
 2954               	.LM412:
 2955 0ed8 82E0      		ldi r24,lo8(2)
 2956 0eda 90E0      		ldi r25,hi8(2)
 2957 0edc 60E0      		ldi r22,lo8(0)
 2958 0ede 70E0      		ldi r23,hi8(0)
 2959 0ee0 42E0      		ldi r20,lo8(2)
 2960 0ee2 50E0      		ldi r21,hi8(2)
 2961 0ee4 0E94 0000 		call setLED
 2962               	.LM413:
 2963 0ee8 82E0      		ldi r24,lo8(2)
 2964 0eea 90E0      		ldi r25,hi8(2)
 2965 0eec 63E0      		ldi r22,lo8(3)
 2966 0eee 70E0      		ldi r23,hi8(3)
 2967 0ef0 41E0      		ldi r20,lo8(1)
 2968 0ef2 50E0      		ldi r21,hi8(1)
 2969 0ef4 0E94 0000 		call setLED
 2970               	.LM414:
 2971 0ef8 82E0      		ldi r24,lo8(2)
 2972 0efa 90E0      		ldi r25,hi8(2)
 2973 0efc 61E0      		ldi r22,lo8(1)
 2974 0efe 70E0      		ldi r23,hi8(1)
 2975 0f00 41E0      		ldi r20,lo8(1)
 2976 0f02 50E0      		ldi r21,hi8(1)
 2977 0f04 0E94 0000 		call setLED
 2978               	.LM415:
 2979 0f08 82E0      		ldi r24,lo8(2)
 2980 0f0a 90E0      		ldi r25,hi8(2)
 2981 0f0c 62E0      		ldi r22,lo8(2)
 2982 0f0e 70E0      		ldi r23,hi8(2)
 2983 0f10 40E0      		ldi r20,lo8(0)
 2984 0f12 50E0      		ldi r21,hi8(0)
 2985 0f14 0E94 0000 		call setLED
 2986               	.LM416:
 2987 0f18 84E6      		ldi r24,lo8(100)
 2988 0f1a 90E0      		ldi r25,hi8(100)
 2989 0f1c 0E94 0000 		call delay_ms
 2990               	.LM417:
 2991 0f20 80E0      		ldi r24,lo8(0)
 2992 0f22 0E94 0000 		call fill
 2993               	.LM418:
 2994 0f26 82E0      		ldi r24,lo8(2)
 2995 0f28 90E0      		ldi r25,hi8(2)
 2996 0f2a 62E0      		ldi r22,lo8(2)
 2997 0f2c 70E0      		ldi r23,hi8(2)
 2998 0f2e 42E0      		ldi r20,lo8(2)
 2999 0f30 50E0      		ldi r21,hi8(2)
 3000 0f32 0E94 0000 		call setLED
 3001               	.LM419:
 3002 0f36 82E0      		ldi r24,lo8(2)
 3003 0f38 90E0      		ldi r25,hi8(2)
 3004 0f3a 62E0      		ldi r22,lo8(2)
 3005 0f3c 70E0      		ldi r23,hi8(2)
 3006 0f3e 40E0      		ldi r20,lo8(0)
 3007 0f40 50E0      		ldi r21,hi8(0)
 3008 0f42 0E94 0000 		call setLED
 3009               	.LM420:
 3010 0f46 82E0      		ldi r24,lo8(2)
 3011 0f48 90E0      		ldi r25,hi8(2)
 3012 0f4a 63E0      		ldi r22,lo8(3)
 3013 0f4c 70E0      		ldi r23,hi8(3)
 3014 0f4e 43E0      		ldi r20,lo8(3)
 3015 0f50 50E0      		ldi r21,hi8(3)
 3016 0f52 0E94 0000 		call setLED
 3017               	.LM421:
 3018 0f56 82E0      		ldi r24,lo8(2)
 3019 0f58 90E0      		ldi r25,hi8(2)
 3020 0f5a 61E0      		ldi r22,lo8(1)
 3021 0f5c 70E0      		ldi r23,hi8(1)
 3022 0f5e 43E0      		ldi r20,lo8(3)
 3023 0f60 50E0      		ldi r21,hi8(3)
 3024 0f62 0E94 0000 		call setLED
 3025               	.LM422:
 3026 0f66 83E0      		ldi r24,lo8(3)
 3027 0f68 90E0      		ldi r25,hi8(3)
 3028 0f6a 64E0      		ldi r22,lo8(4)
 3029 0f6c 70E0      		ldi r23,hi8(4)
 3030 0f6e 42E0      		ldi r20,lo8(2)
 3031 0f70 50E0      		ldi r21,hi8(2)
 3032 0f72 0E94 0000 		call setLED
 3033               	.LM423:
 3034 0f76 81E0      		ldi r24,lo8(1)
 3035 0f78 90E0      		ldi r25,hi8(1)
 3036 0f7a 60E0      		ldi r22,lo8(0)
 3037 0f7c 70E0      		ldi r23,hi8(0)
 3038 0f7e 42E0      		ldi r20,lo8(2)
 3039 0f80 50E0      		ldi r21,hi8(2)
 3040 0f82 0E94 0000 		call setLED
 3041               	.LM424:
 3042 0f86 82E0      		ldi r24,lo8(2)
 3043 0f88 90E0      		ldi r25,hi8(2)
 3044 0f8a 63E0      		ldi r22,lo8(3)
 3045 0f8c 70E0      		ldi r23,hi8(3)
 3046 0f8e 41E0      		ldi r20,lo8(1)
 3047 0f90 50E0      		ldi r21,hi8(1)
 3048 0f92 0E94 0000 		call setLED
 3049               	.LM425:
 3050 0f96 82E0      		ldi r24,lo8(2)
 3051 0f98 90E0      		ldi r25,hi8(2)
 3052 0f9a 61E0      		ldi r22,lo8(1)
 3053 0f9c 70E0      		ldi r23,hi8(1)
 3054 0f9e 41E0      		ldi r20,lo8(1)
 3055 0fa0 50E0      		ldi r21,hi8(1)
 3056 0fa2 0E94 0000 		call setLED
 3057               	.LM426:
 3058 0fa6 84E6      		ldi r24,lo8(100)
 3059 0fa8 90E0      		ldi r25,hi8(100)
 3060 0faa 0E94 0000 		call delay_ms
 3061               	.LM427:
 3062 0fae 80E0      		ldi r24,lo8(0)
 3063 0fb0 0E94 0000 		call fill
 3064               	.LM428:
 3065 0fb4 82E0      		ldi r24,lo8(2)
 3066 0fb6 90E0      		ldi r25,hi8(2)
 3067 0fb8 62E0      		ldi r22,lo8(2)
 3068 0fba 70E0      		ldi r23,hi8(2)
 3069 0fbc 42E0      		ldi r20,lo8(2)
 3070 0fbe 50E0      		ldi r21,hi8(2)
 3071 0fc0 0E94 0000 		call setLED
 3072               	.LM429:
 3073 0fc4 82E0      		ldi r24,lo8(2)
 3074 0fc6 90E0      		ldi r25,hi8(2)
 3075 0fc8 62E0      		ldi r22,lo8(2)
 3076 0fca 70E0      		ldi r23,hi8(2)
 3077 0fcc 40E0      		ldi r20,lo8(0)
 3078 0fce 50E0      		ldi r21,hi8(0)
 3079 0fd0 0E94 0000 		call setLED
 3080               	.LM430:
 3081 0fd4 83E0      		ldi r24,lo8(3)
 3082 0fd6 90E0      		ldi r25,hi8(3)
 3083 0fd8 63E0      		ldi r22,lo8(3)
 3084 0fda 70E0      		ldi r23,hi8(3)
 3085 0fdc 43E0      		ldi r20,lo8(3)
 3086 0fde 50E0      		ldi r21,hi8(3)
 3087 0fe0 0E94 0000 		call setLED
 3088               	.LM431:
 3089 0fe4 81E0      		ldi r24,lo8(1)
 3090 0fe6 90E0      		ldi r25,hi8(1)
 3091 0fe8 61E0      		ldi r22,lo8(1)
 3092 0fea 70E0      		ldi r23,hi8(1)
 3093 0fec 43E0      		ldi r20,lo8(3)
 3094 0fee 50E0      		ldi r21,hi8(3)
 3095 0ff0 0E94 0000 		call setLED
 3096               	.LM432:
 3097 0ff4 84E0      		ldi r24,lo8(4)
 3098 0ff6 90E0      		ldi r25,hi8(4)
 3099 0ff8 64E0      		ldi r22,lo8(4)
 3100 0ffa 70E0      		ldi r23,hi8(4)
 3101 0ffc 42E0      		ldi r20,lo8(2)
 3102 0ffe 50E0      		ldi r21,hi8(2)
 3103 1000 0E94 0000 		call setLED
 3104               	.LM433:
 3105 1004 80E0      		ldi r24,lo8(0)
 3106 1006 90E0      		ldi r25,hi8(0)
 3107 1008 60E0      		ldi r22,lo8(0)
 3108 100a 70E0      		ldi r23,hi8(0)
 3109 100c 42E0      		ldi r20,lo8(2)
 3110 100e 50E0      		ldi r21,hi8(2)
 3111 1010 0E94 0000 		call setLED
 3112               	.LM434:
 3113 1014 83E0      		ldi r24,lo8(3)
 3114 1016 90E0      		ldi r25,hi8(3)
 3115 1018 63E0      		ldi r22,lo8(3)
 3116 101a 70E0      		ldi r23,hi8(3)
 3117 101c 41E0      		ldi r20,lo8(1)
 3118 101e 50E0      		ldi r21,hi8(1)
 3119 1020 0E94 0000 		call setLED
 3120               	.LM435:
 3121 1024 81E0      		ldi r24,lo8(1)
 3122 1026 90E0      		ldi r25,hi8(1)
 3123 1028 61E0      		ldi r22,lo8(1)
 3124 102a 70E0      		ldi r23,hi8(1)
 3125 102c 41E0      		ldi r20,lo8(1)
 3126 102e 50E0      		ldi r21,hi8(1)
 3127 1030 0E94 0000 		call setLED
 3128               	.LM436:
 3129 1034 84E6      		ldi r24,lo8(100)
 3130 1036 90E0      		ldi r25,hi8(100)
 3131 1038 0E94 0000 		call delay_ms
 3132               	.LM437:
 3133 103c 80E0      		ldi r24,lo8(0)
 3134 103e 0E94 0000 		call fill
 3135               	.LM438:
 3136 1042 82E0      		ldi r24,lo8(2)
 3137 1044 90E0      		ldi r25,hi8(2)
 3138 1046 62E0      		ldi r22,lo8(2)
 3139 1048 70E0      		ldi r23,hi8(2)
 3140 104a 42E0      		ldi r20,lo8(2)
 3141 104c 50E0      		ldi r21,hi8(2)
 3142 104e 0E94 0000 		call setLED
 3143               	.LM439:
 3144 1052 82E0      		ldi r24,lo8(2)
 3145 1054 90E0      		ldi r25,hi8(2)
 3146 1056 62E0      		ldi r22,lo8(2)
 3147 1058 70E0      		ldi r23,hi8(2)
 3148 105a 40E0      		ldi r20,lo8(0)
 3149 105c 50E0      		ldi r21,hi8(0)
 3150 105e 0E94 0000 		call setLED
 3151               	.LM440:
 3152 1062 83E0      		ldi r24,lo8(3)
 3153 1064 90E0      		ldi r25,hi8(3)
 3154 1066 63E0      		ldi r22,lo8(3)
 3155 1068 70E0      		ldi r23,hi8(3)
 3156 106a 43E0      		ldi r20,lo8(3)
 3157 106c 50E0      		ldi r21,hi8(3)
 3158 106e 0E94 0000 		call setLED
 3159               	.LM441:
 3160 1072 81E0      		ldi r24,lo8(1)
 3161 1074 90E0      		ldi r25,hi8(1)
 3162 1076 61E0      		ldi r22,lo8(1)
 3163 1078 70E0      		ldi r23,hi8(1)
 3164 107a 43E0      		ldi r20,lo8(3)
 3165 107c 50E0      		ldi r21,hi8(3)
 3166 107e 0E94 0000 		call setLED
 3167               	.LM442:
 3168 1082 84E0      		ldi r24,lo8(4)
 3169 1084 90E0      		ldi r25,hi8(4)
 3170 1086 63E0      		ldi r22,lo8(3)
 3171 1088 70E0      		ldi r23,hi8(3)
 3172 108a 42E0      		ldi r20,lo8(2)
 3173 108c 50E0      		ldi r21,hi8(2)
 3174 108e 0E94 0000 		call setLED
 3175               	.LM443:
 3176 1092 80E0      		ldi r24,lo8(0)
 3177 1094 90E0      		ldi r25,hi8(0)
 3178 1096 61E0      		ldi r22,lo8(1)
 3179 1098 70E0      		ldi r23,hi8(1)
 3180 109a 42E0      		ldi r20,lo8(2)
 3181 109c 50E0      		ldi r21,hi8(2)
 3182 109e 0E94 0000 		call setLED
 3183               	.LM444:
 3184 10a2 83E0      		ldi r24,lo8(3)
 3185 10a4 90E0      		ldi r25,hi8(3)
 3186 10a6 63E0      		ldi r22,lo8(3)
 3187 10a8 70E0      		ldi r23,hi8(3)
 3188 10aa 41E0      		ldi r20,lo8(1)
 3189 10ac 50E0      		ldi r21,hi8(1)
 3190 10ae 0E94 0000 		call setLED
 3191               	.LM445:
 3192 10b2 81E0      		ldi r24,lo8(1)
 3193 10b4 90E0      		ldi r25,hi8(1)
 3194 10b6 61E0      		ldi r22,lo8(1)
 3195 10b8 70E0      		ldi r23,hi8(1)
 3196 10ba 41E0      		ldi r20,lo8(1)
 3197 10bc 50E0      		ldi r21,hi8(1)
 3198 10be 0E94 0000 		call setLED
 3199               	.LM446:
 3200 10c2 84E6      		ldi r24,lo8(100)
 3201 10c4 90E0      		ldi r25,hi8(100)
 3202 10c6 0E94 0000 		call delay_ms
 3203               	.LM447:
 3204 10ca 80E0      		ldi r24,lo8(0)
 3205 10cc 0E94 0000 		call fill
 3206               	.LM448:
 3207 10d0 82E0      		ldi r24,lo8(2)
 3208 10d2 90E0      		ldi r25,hi8(2)
 3209 10d4 62E0      		ldi r22,lo8(2)
 3210 10d6 70E0      		ldi r23,hi8(2)
 3211 10d8 42E0      		ldi r20,lo8(2)
 3212 10da 50E0      		ldi r21,hi8(2)
 3213 10dc 0E94 0000 		call setLED
 3214               	.LM449:
 3215 10e0 82E0      		ldi r24,lo8(2)
 3216 10e2 90E0      		ldi r25,hi8(2)
 3217 10e4 62E0      		ldi r22,lo8(2)
 3218 10e6 70E0      		ldi r23,hi8(2)
 3219 10e8 40E0      		ldi r20,lo8(0)
 3220 10ea 50E0      		ldi r21,hi8(0)
 3221 10ec 0E94 0000 		call setLED
 3222               	.LM450:
 3223 10f0 83E0      		ldi r24,lo8(3)
 3224 10f2 90E0      		ldi r25,hi8(3)
 3225 10f4 62E0      		ldi r22,lo8(2)
 3226 10f6 70E0      		ldi r23,hi8(2)
 3227 10f8 43E0      		ldi r20,lo8(3)
 3228 10fa 50E0      		ldi r21,hi8(3)
 3229 10fc 0E94 0000 		call setLED
 3230               	.LM451:
 3231 1100 81E0      		ldi r24,lo8(1)
 3232 1102 90E0      		ldi r25,hi8(1)
 3233 1104 62E0      		ldi r22,lo8(2)
 3234 1106 70E0      		ldi r23,hi8(2)
 3235 1108 43E0      		ldi r20,lo8(3)
 3236 110a 50E0      		ldi r21,hi8(3)
 3237 110c 0E94 0000 		call setLED
 3238               	.LM452:
 3239 1110 84E0      		ldi r24,lo8(4)
 3240 1112 90E0      		ldi r25,hi8(4)
 3241 1114 62E0      		ldi r22,lo8(2)
 3242 1116 70E0      		ldi r23,hi8(2)
 3243 1118 42E0      		ldi r20,lo8(2)
 3244 111a 50E0      		ldi r21,hi8(2)
 3245 111c 0E94 0000 		call setLED
 3246               	.LM453:
 3247 1120 80E0      		ldi r24,lo8(0)
 3248 1122 90E0      		ldi r25,hi8(0)
 3249 1124 62E0      		ldi r22,lo8(2)
 3250 1126 70E0      		ldi r23,hi8(2)
 3251 1128 42E0      		ldi r20,lo8(2)
 3252 112a 50E0      		ldi r21,hi8(2)
 3253 112c 0E94 0000 		call setLED
 3254               	.LM454:
 3255 1130 83E0      		ldi r24,lo8(3)
 3256 1132 90E0      		ldi r25,hi8(3)
 3257 1134 62E0      		ldi r22,lo8(2)
 3258 1136 70E0      		ldi r23,hi8(2)
 3259 1138 41E0      		ldi r20,lo8(1)
 3260 113a 50E0      		ldi r21,hi8(1)
 3261 113c 0E94 0000 		call setLED
 3262               	.LM455:
 3263 1140 81E0      		ldi r24,lo8(1)
 3264 1142 90E0      		ldi r25,hi8(1)
 3265 1144 62E0      		ldi r22,lo8(2)
 3266 1146 70E0      		ldi r23,hi8(2)
 3267 1148 41E0      		ldi r20,lo8(1)
 3268 114a 50E0      		ldi r21,hi8(1)
 3269 114c 0E94 0000 		call setLED
 3270               	.LM456:
 3271 1150 84E6      		ldi r24,lo8(100)
 3272 1152 90E0      		ldi r25,hi8(100)
 3273 1154 0E94 0000 		call delay_ms
 3274               	.LM457:
 3275 1158 80E0      		ldi r24,lo8(0)
 3276 115a 0E94 0000 		call fill
 3277               	.LM458:
 3278 115e 82E0      		ldi r24,lo8(2)
 3279 1160 90E0      		ldi r25,hi8(2)
 3280 1162 62E0      		ldi r22,lo8(2)
 3281 1164 70E0      		ldi r23,hi8(2)
 3282 1166 42E0      		ldi r20,lo8(2)
 3283 1168 50E0      		ldi r21,hi8(2)
 3284 116a 0E94 0000 		call setLED
 3285               	.LM459:
 3286 116e 82E0      		ldi r24,lo8(2)
 3287 1170 90E0      		ldi r25,hi8(2)
 3288 1172 62E0      		ldi r22,lo8(2)
 3289 1174 70E0      		ldi r23,hi8(2)
 3290 1176 40E0      		ldi r20,lo8(0)
 3291 1178 50E0      		ldi r21,hi8(0)
 3292 117a 0E94 0000 		call setLED
 3293               	.LM460:
 3294 117e 83E0      		ldi r24,lo8(3)
 3295 1180 90E0      		ldi r25,hi8(3)
 3296 1182 62E0      		ldi r22,lo8(2)
 3297 1184 70E0      		ldi r23,hi8(2)
 3298 1186 43E0      		ldi r20,lo8(3)
 3299 1188 50E0      		ldi r21,hi8(3)
 3300 118a 0E94 0000 		call setLED
 3301               	.LM461:
 3302 118e 81E0      		ldi r24,lo8(1)
 3303 1190 90E0      		ldi r25,hi8(1)
 3304 1192 62E0      		ldi r22,lo8(2)
 3305 1194 70E0      		ldi r23,hi8(2)
 3306 1196 43E0      		ldi r20,lo8(3)
 3307 1198 50E0      		ldi r21,hi8(3)
 3308 119a 0E94 0000 		call setLED
 3309               	.LM462:
 3310 119e 84E0      		ldi r24,lo8(4)
 3311 11a0 90E0      		ldi r25,hi8(4)
 3312 11a2 61E0      		ldi r22,lo8(1)
 3313 11a4 70E0      		ldi r23,hi8(1)
 3314 11a6 42E0      		ldi r20,lo8(2)
 3315 11a8 50E0      		ldi r21,hi8(2)
 3316 11aa 0E94 0000 		call setLED
 3317               	.LM463:
 3318 11ae 80E0      		ldi r24,lo8(0)
 3319 11b0 90E0      		ldi r25,hi8(0)
 3320 11b2 63E0      		ldi r22,lo8(3)
 3321 11b4 70E0      		ldi r23,hi8(3)
 3322 11b6 42E0      		ldi r20,lo8(2)
 3323 11b8 50E0      		ldi r21,hi8(2)
 3324 11ba 0E94 0000 		call setLED
 3325               	.LM464:
 3326 11be 83E0      		ldi r24,lo8(3)
 3327 11c0 90E0      		ldi r25,hi8(3)
 3328 11c2 62E0      		ldi r22,lo8(2)
 3329 11c4 70E0      		ldi r23,hi8(2)
 3330 11c6 41E0      		ldi r20,lo8(1)
 3331 11c8 50E0      		ldi r21,hi8(1)
 3332 11ca 0E94 0000 		call setLED
 3333               	.LM465:
 3334 11ce 81E0      		ldi r24,lo8(1)
 3335 11d0 90E0      		ldi r25,hi8(1)
 3336 11d2 62E0      		ldi r22,lo8(2)
 3337 11d4 70E0      		ldi r23,hi8(2)
 3338 11d6 41E0      		ldi r20,lo8(1)
 3339 11d8 50E0      		ldi r21,hi8(1)
 3340 11da 0E94 0000 		call setLED
 3341               	.LM466:
 3342 11de 84E6      		ldi r24,lo8(100)
 3343 11e0 90E0      		ldi r25,hi8(100)
 3344 11e2 0E94 0000 		call delay_ms
 3345               	.LM467:
 3346 11e6 80E0      		ldi r24,lo8(0)
 3347 11e8 0E94 0000 		call fill
 3348               	.LM468:
 3349 11ec 82E0      		ldi r24,lo8(2)
 3350 11ee 90E0      		ldi r25,hi8(2)
 3351 11f0 62E0      		ldi r22,lo8(2)
 3352 11f2 70E0      		ldi r23,hi8(2)
 3353 11f4 42E0      		ldi r20,lo8(2)
 3354 11f6 50E0      		ldi r21,hi8(2)
 3355 11f8 0E94 0000 		call setLED
 3356               	.LM469:
 3357 11fc 82E0      		ldi r24,lo8(2)
 3358 11fe 90E0      		ldi r25,hi8(2)
 3359 1200 62E0      		ldi r22,lo8(2)
 3360 1202 70E0      		ldi r23,hi8(2)
 3361 1204 40E0      		ldi r20,lo8(0)
 3362 1206 50E0      		ldi r21,hi8(0)
 3363 1208 0E94 0000 		call setLED
 3364               	.LM470:
 3365 120c 83E0      		ldi r24,lo8(3)
 3366 120e 90E0      		ldi r25,hi8(3)
 3367 1210 61E0      		ldi r22,lo8(1)
 3368 1212 70E0      		ldi r23,hi8(1)
 3369 1214 43E0      		ldi r20,lo8(3)
 3370 1216 50E0      		ldi r21,hi8(3)
 3371 1218 0E94 0000 		call setLED
 3372               	.LM471:
 3373 121c 81E0      		ldi r24,lo8(1)
 3374 121e 90E0      		ldi r25,hi8(1)
 3375 1220 63E0      		ldi r22,lo8(3)
 3376 1222 70E0      		ldi r23,hi8(3)
 3377 1224 43E0      		ldi r20,lo8(3)
 3378 1226 50E0      		ldi r21,hi8(3)
 3379 1228 0E94 0000 		call setLED
 3380               	.LM472:
 3381 122c 84E0      		ldi r24,lo8(4)
 3382 122e 90E0      		ldi r25,hi8(4)
 3383 1230 60E0      		ldi r22,lo8(0)
 3384 1232 70E0      		ldi r23,hi8(0)
 3385 1234 42E0      		ldi r20,lo8(2)
 3386 1236 50E0      		ldi r21,hi8(2)
 3387 1238 0E94 0000 		call setLED
 3388               	.LM473:
 3389 123c 80E0      		ldi r24,lo8(0)
 3390 123e 90E0      		ldi r25,hi8(0)
 3391 1240 64E0      		ldi r22,lo8(4)
 3392 1242 70E0      		ldi r23,hi8(4)
 3393 1244 42E0      		ldi r20,lo8(2)
 3394 1246 50E0      		ldi r21,hi8(2)
 3395 1248 0E94 0000 		call setLED
 3396               	.LM474:
 3397 124c 83E0      		ldi r24,lo8(3)
 3398 124e 90E0      		ldi r25,hi8(3)
 3399 1250 61E0      		ldi r22,lo8(1)
 3400 1252 70E0      		ldi r23,hi8(1)
 3401 1254 41E0      		ldi r20,lo8(1)
 3402 1256 50E0      		ldi r21,hi8(1)
 3403 1258 0E94 0000 		call setLED
 3404               	.LM475:
 3405 125c 81E0      		ldi r24,lo8(1)
 3406 125e 90E0      		ldi r25,hi8(1)
 3407 1260 63E0      		ldi r22,lo8(3)
 3408 1262 70E0      		ldi r23,hi8(3)
 3409 1264 41E0      		ldi r20,lo8(1)
 3410 1266 50E0      		ldi r21,hi8(1)
 3411 1268 0E94 0000 		call setLED
 3412               	.LM476:
 3413 126c 84E6      		ldi r24,lo8(100)
 3414 126e 90E0      		ldi r25,hi8(100)
 3415 1270 0E94 0000 		call delay_ms
 3416               	.LM477:
 3417 1274 80E0      		ldi r24,lo8(0)
 3418 1276 0E94 0000 		call fill
 3419               	.LM478:
 3420 127a 82E0      		ldi r24,lo8(2)
 3421 127c 90E0      		ldi r25,hi8(2)
 3422 127e 62E0      		ldi r22,lo8(2)
 3423 1280 70E0      		ldi r23,hi8(2)
 3424 1282 42E0      		ldi r20,lo8(2)
 3425 1284 50E0      		ldi r21,hi8(2)
 3426 1286 0E94 0000 		call setLED
 3427               	.LM479:
 3428 128a 82E0      		ldi r24,lo8(2)
 3429 128c 90E0      		ldi r25,hi8(2)
 3430 128e 62E0      		ldi r22,lo8(2)
 3431 1290 70E0      		ldi r23,hi8(2)
 3432 1292 40E0      		ldi r20,lo8(0)
 3433 1294 50E0      		ldi r21,hi8(0)
 3434 1296 0E94 0000 		call setLED
 3435               	.LM480:
 3436 129a 83E0      		ldi r24,lo8(3)
 3437 129c 90E0      		ldi r25,hi8(3)
 3438 129e 61E0      		ldi r22,lo8(1)
 3439 12a0 70E0      		ldi r23,hi8(1)
 3440 12a2 43E0      		ldi r20,lo8(3)
 3441 12a4 50E0      		ldi r21,hi8(3)
 3442 12a6 0E94 0000 		call setLED
 3443               	.LM481:
 3444 12aa 81E0      		ldi r24,lo8(1)
 3445 12ac 90E0      		ldi r25,hi8(1)
 3446 12ae 63E0      		ldi r22,lo8(3)
 3447 12b0 70E0      		ldi r23,hi8(3)
 3448 12b2 43E0      		ldi r20,lo8(3)
 3449 12b4 50E0      		ldi r21,hi8(3)
 3450 12b6 0E94 0000 		call setLED
 3451               	.LM482:
 3452 12ba 83E0      		ldi r24,lo8(3)
 3453 12bc 90E0      		ldi r25,hi8(3)
 3454 12be 60E0      		ldi r22,lo8(0)
 3455 12c0 70E0      		ldi r23,hi8(0)
 3456 12c2 42E0      		ldi r20,lo8(2)
 3457 12c4 50E0      		ldi r21,hi8(2)
 3458 12c6 0E94 0000 		call setLED
 3459               	.LM483:
 3460 12ca 81E0      		ldi r24,lo8(1)
 3461 12cc 90E0      		ldi r25,hi8(1)
 3462 12ce 64E0      		ldi r22,lo8(4)
 3463 12d0 70E0      		ldi r23,hi8(4)
 3464 12d2 42E0      		ldi r20,lo8(2)
 3465 12d4 50E0      		ldi r21,hi8(2)
 3466 12d6 0E94 0000 		call setLED
 3467               	.LM484:
 3468 12da 83E0      		ldi r24,lo8(3)
 3469 12dc 90E0      		ldi r25,hi8(3)
 3470 12de 61E0      		ldi r22,lo8(1)
 3471 12e0 70E0      		ldi r23,hi8(1)
 3472 12e2 41E0      		ldi r20,lo8(1)
 3473 12e4 50E0      		ldi r21,hi8(1)
 3474 12e6 0E94 0000 		call setLED
 3475               	.LM485:
 3476 12ea 81E0      		ldi r24,lo8(1)
 3477 12ec 90E0      		ldi r25,hi8(1)
 3478 12ee 63E0      		ldi r22,lo8(3)
 3479 12f0 70E0      		ldi r23,hi8(3)
 3480 12f2 41E0      		ldi r20,lo8(1)
 3481 12f4 50E0      		ldi r21,hi8(1)
 3482 12f6 0E94 0000 		call setLED
 3483               	.LM486:
 3484 12fa 84E6      		ldi r24,lo8(100)
 3485 12fc 90E0      		ldi r25,hi8(100)
 3486 12fe 0E94 0000 		call delay_ms
 3487 1302 2197      		sbiw r28,1
 3488               	.LM487:
 3489 1304 01F0      		breq .+2
 3490 1306 00C0      		rjmp .L172
 3491               	.LM488:
 3492 1308 80E0      		ldi r24,lo8(0)
 3493 130a 0E94 0000 		call fill
 3494               	.LVL324:
 3495 130e E5E0      		ldi r30,lo8(5)
 3496 1310 EE2E      		mov r14,r30
 3497 1312 F12C      		mov r15,__zero_reg__
 3498               	.LM489:
 3499 1314 74E0      		ldi r23,lo8(4)
 3500 1316 C72E      		mov r12,r23
 3501 1318 D12C      		mov r13,__zero_reg__
 3502 131a 00C0      		rjmp .L173
 3503               	.LVL325:
 3504               	.L174:
 3505               	.LM490:
 3506 131c E601      		movw r28,r12
 3507 131e C01B      		sub r28,r16
 3508 1320 D10B      		sbc r29,r17
 3509               	.LM491:
 3510 1322 CE01      		movw r24,r28
 3511 1324 62E0      		ldi r22,lo8(2)
 3512 1326 70E0      		ldi r23,hi8(2)
 3513 1328 42E0      		ldi r20,lo8(2)
 3514 132a 50E0      		ldi r21,hi8(2)
 3515 132c 0E94 0000 		call setLED
 3516               	.LM492:
 3517 1330 CE01      		movw r24,r28
 3518 1332 63E0      		ldi r22,lo8(3)
 3519 1334 70E0      		ldi r23,hi8(3)
 3520 1336 43E0      		ldi r20,lo8(3)
 3521 1338 50E0      		ldi r21,hi8(3)
 3522 133a 0E94 0000 		call setLED
 3523               	.LM493:
 3524 133e CE01      		movw r24,r28
 3525 1340 61E0      		ldi r22,lo8(1)
 3526 1342 70E0      		ldi r23,hi8(1)
 3527 1344 43E0      		ldi r20,lo8(3)
 3528 1346 50E0      		ldi r21,hi8(3)
 3529 1348 0E94 0000 		call setLED
 3530               	.LM494:
 3531 134c CE01      		movw r24,r28
 3532 134e 64E0      		ldi r22,lo8(4)
 3533 1350 70E0      		ldi r23,hi8(4)
 3534 1352 42E0      		ldi r20,lo8(2)
 3535 1354 50E0      		ldi r21,hi8(2)
 3536 1356 0E94 0000 		call setLED
 3537               	.LM495:
 3538 135a CE01      		movw r24,r28
 3539 135c 60E0      		ldi r22,lo8(0)
 3540 135e 70E0      		ldi r23,hi8(0)
 3541 1360 42E0      		ldi r20,lo8(2)
 3542 1362 50E0      		ldi r21,hi8(2)
 3543 1364 0E94 0000 		call setLED
 3544               	.LM496:
 3545 1368 CE01      		movw r24,r28
 3546 136a 63E0      		ldi r22,lo8(3)
 3547 136c 70E0      		ldi r23,hi8(3)
 3548 136e 41E0      		ldi r20,lo8(1)
 3549 1370 50E0      		ldi r21,hi8(1)
 3550 1372 0E94 0000 		call setLED
 3551               	.LM497:
 3552 1376 CE01      		movw r24,r28
 3553 1378 61E0      		ldi r22,lo8(1)
 3554 137a 70E0      		ldi r23,hi8(1)
 3555 137c 41E0      		ldi r20,lo8(1)
 3556 137e 50E0      		ldi r21,hi8(1)
 3557 1380 0E94 0000 		call setLED
 3558               	.LM498:
 3559 1384 CE01      		movw r24,r28
 3560 1386 62E0      		ldi r22,lo8(2)
 3561 1388 70E0      		ldi r23,hi8(2)
 3562 138a 40E0      		ldi r20,lo8(0)
 3563 138c 50E0      		ldi r21,hi8(0)
 3564 138e 0E94 0000 		call setLED
 3565               	.LM499:
 3566 1392 C801      		movw r24,r16
 3567 1394 62E0      		ldi r22,lo8(2)
 3568 1396 70E0      		ldi r23,hi8(2)
 3569 1398 42E0      		ldi r20,lo8(2)
 3570 139a 50E0      		ldi r21,hi8(2)
 3571 139c 0E94 0000 		call setLED
 3572               	.LM500:
 3573 13a0 C801      		movw r24,r16
 3574 13a2 63E0      		ldi r22,lo8(3)
 3575 13a4 70E0      		ldi r23,hi8(3)
 3576 13a6 43E0      		ldi r20,lo8(3)
 3577 13a8 50E0      		ldi r21,hi8(3)
 3578 13aa 0E94 0000 		call setLED
 3579               	.LM501:
 3580 13ae C801      		movw r24,r16
 3581 13b0 61E0      		ldi r22,lo8(1)
 3582 13b2 70E0      		ldi r23,hi8(1)
 3583 13b4 43E0      		ldi r20,lo8(3)
 3584 13b6 50E0      		ldi r21,hi8(3)
 3585 13b8 0E94 0000 		call setLED
 3586               	.LM502:
 3587 13bc C801      		movw r24,r16
 3588 13be 64E0      		ldi r22,lo8(4)
 3589 13c0 70E0      		ldi r23,hi8(4)
 3590 13c2 42E0      		ldi r20,lo8(2)
 3591 13c4 50E0      		ldi r21,hi8(2)
 3592 13c6 0E94 0000 		call setLED
 3593               	.LM503:
 3594 13ca C801      		movw r24,r16
 3595 13cc 60E0      		ldi r22,lo8(0)
 3596 13ce 70E0      		ldi r23,hi8(0)
 3597 13d0 42E0      		ldi r20,lo8(2)
 3598 13d2 50E0      		ldi r21,hi8(2)
 3599 13d4 0E94 0000 		call setLED
 3600               	.LM504:
 3601 13d8 C801      		movw r24,r16
 3602 13da 63E0      		ldi r22,lo8(3)
 3603 13dc 70E0      		ldi r23,hi8(3)
 3604 13de 41E0      		ldi r20,lo8(1)
 3605 13e0 50E0      		ldi r21,hi8(1)
 3606 13e2 0E94 0000 		call setLED
 3607               	.LM505:
 3608 13e6 C801      		movw r24,r16
 3609 13e8 61E0      		ldi r22,lo8(1)
 3610 13ea 70E0      		ldi r23,hi8(1)
 3611 13ec 41E0      		ldi r20,lo8(1)
 3612 13ee 50E0      		ldi r21,hi8(1)
 3613 13f0 0E94 0000 		call setLED
 3614               	.LM506:
 3615 13f4 C801      		movw r24,r16
 3616 13f6 62E0      		ldi r22,lo8(2)
 3617 13f8 70E0      		ldi r23,hi8(2)
 3618 13fa 40E0      		ldi r20,lo8(0)
 3619 13fc 50E0      		ldi r21,hi8(0)
 3620 13fe 0E94 0000 		call setLED
 3621               	.LM507:
 3622 1402 84E6      		ldi r24,lo8(100)
 3623 1404 90E0      		ldi r25,hi8(100)
 3624 1406 0E94 0000 		call delay_ms
 3625 140a 0150      		subi r16,lo8(-(-1))
 3626 140c 1040      		sbci r17,hi8(-(-1))
 3627               	.LM508:
 3628 140e 8FEF      		ldi r24,hi8(-1)
 3629 1410 0F3F      		cpi r16,lo8(-1)
 3630 1412 1807      		cpc r17,r24
 3631 1414 01F0      		breq .+2
 3632 1416 00C0      		rjmp .L174
 3633 1418 00E0      		ldi r16,lo8(0)
 3634 141a 10E0      		ldi r17,hi8(0)
 3635               	.L175:
 3636               	.LM509:
 3637 141c E601      		movw r28,r12
 3638 141e C01B      		sub r28,r16
 3639 1420 D10B      		sbc r29,r17
 3640               	.LM510:
 3641 1422 CE01      		movw r24,r28
 3642 1424 62E0      		ldi r22,lo8(2)
 3643 1426 70E0      		ldi r23,hi8(2)
 3644 1428 42E0      		ldi r20,lo8(2)
 3645 142a 50E0      		ldi r21,hi8(2)
 3646 142c 0E94 0000 		call clrLED
 3647               	.LM511:
 3648 1430 CE01      		movw r24,r28
 3649 1432 63E0      		ldi r22,lo8(3)
 3650 1434 70E0      		ldi r23,hi8(3)
 3651 1436 43E0      		ldi r20,lo8(3)
 3652 1438 50E0      		ldi r21,hi8(3)
 3653 143a 0E94 0000 		call clrLED
 3654               	.LM512:
 3655 143e CE01      		movw r24,r28
 3656 1440 61E0      		ldi r22,lo8(1)
 3657 1442 70E0      		ldi r23,hi8(1)
 3658 1444 43E0      		ldi r20,lo8(3)
 3659 1446 50E0      		ldi r21,hi8(3)
 3660 1448 0E94 0000 		call clrLED
 3661               	.LM513:
 3662 144c CE01      		movw r24,r28
 3663 144e 64E0      		ldi r22,lo8(4)
 3664 1450 70E0      		ldi r23,hi8(4)
 3665 1452 42E0      		ldi r20,lo8(2)
 3666 1454 50E0      		ldi r21,hi8(2)
 3667 1456 0E94 0000 		call clrLED
 3668               	.LM514:
 3669 145a CE01      		movw r24,r28
 3670 145c 60E0      		ldi r22,lo8(0)
 3671 145e 70E0      		ldi r23,hi8(0)
 3672 1460 42E0      		ldi r20,lo8(2)
 3673 1462 50E0      		ldi r21,hi8(2)
 3674 1464 0E94 0000 		call clrLED
 3675               	.LM515:
 3676 1468 CE01      		movw r24,r28
 3677 146a 63E0      		ldi r22,lo8(3)
 3678 146c 70E0      		ldi r23,hi8(3)
 3679 146e 41E0      		ldi r20,lo8(1)
 3680 1470 50E0      		ldi r21,hi8(1)
 3681 1472 0E94 0000 		call clrLED
 3682               	.LM516:
 3683 1476 CE01      		movw r24,r28
 3684 1478 61E0      		ldi r22,lo8(1)
 3685 147a 70E0      		ldi r23,hi8(1)
 3686 147c 41E0      		ldi r20,lo8(1)
 3687 147e 50E0      		ldi r21,hi8(1)
 3688 1480 0E94 0000 		call clrLED
 3689               	.LM517:
 3690 1484 CE01      		movw r24,r28
 3691 1486 62E0      		ldi r22,lo8(2)
 3692 1488 70E0      		ldi r23,hi8(2)
 3693 148a 40E0      		ldi r20,lo8(0)
 3694 148c 50E0      		ldi r21,hi8(0)
 3695 148e 0E94 0000 		call clrLED
 3696               	.LM518:
 3697 1492 C801      		movw r24,r16
 3698 1494 62E0      		ldi r22,lo8(2)
 3699 1496 70E0      		ldi r23,hi8(2)
 3700 1498 42E0      		ldi r20,lo8(2)
 3701 149a 50E0      		ldi r21,hi8(2)
 3702 149c 0E94 0000 		call clrLED
 3703               	.LM519:
 3704 14a0 C801      		movw r24,r16
 3705 14a2 63E0      		ldi r22,lo8(3)
 3706 14a4 70E0      		ldi r23,hi8(3)
 3707 14a6 43E0      		ldi r20,lo8(3)
 3708 14a8 50E0      		ldi r21,hi8(3)
 3709 14aa 0E94 0000 		call clrLED
 3710               	.LM520:
 3711 14ae C801      		movw r24,r16
 3712 14b0 61E0      		ldi r22,lo8(1)
 3713 14b2 70E0      		ldi r23,hi8(1)
 3714 14b4 43E0      		ldi r20,lo8(3)
 3715 14b6 50E0      		ldi r21,hi8(3)
 3716 14b8 0E94 0000 		call clrLED
 3717               	.LM521:
 3718 14bc C801      		movw r24,r16
 3719 14be 64E0      		ldi r22,lo8(4)
 3720 14c0 70E0      		ldi r23,hi8(4)
 3721 14c2 42E0      		ldi r20,lo8(2)
 3722 14c4 50E0      		ldi r21,hi8(2)
 3723 14c6 0E94 0000 		call clrLED
 3724               	.LM522:
 3725 14ca C801      		movw r24,r16
 3726 14cc 60E0      		ldi r22,lo8(0)
 3727 14ce 70E0      		ldi r23,hi8(0)
 3728 14d0 42E0      		ldi r20,lo8(2)
 3729 14d2 50E0      		ldi r21,hi8(2)
 3730 14d4 0E94 0000 		call clrLED
 3731               	.LM523:
 3732 14d8 C801      		movw r24,r16
 3733 14da 63E0      		ldi r22,lo8(3)
 3734 14dc 70E0      		ldi r23,hi8(3)
 3735 14de 41E0      		ldi r20,lo8(1)
 3736 14e0 50E0      		ldi r21,hi8(1)
 3737 14e2 0E94 0000 		call clrLED
 3738               	.LM524:
 3739 14e6 C801      		movw r24,r16
 3740 14e8 61E0      		ldi r22,lo8(1)
 3741 14ea 70E0      		ldi r23,hi8(1)
 3742 14ec 41E0      		ldi r20,lo8(1)
 3743 14ee 50E0      		ldi r21,hi8(1)
 3744 14f0 0E94 0000 		call clrLED
 3745               	.LM525:
 3746 14f4 C801      		movw r24,r16
 3747 14f6 62E0      		ldi r22,lo8(2)
 3748 14f8 70E0      		ldi r23,hi8(2)
 3749 14fa 40E0      		ldi r20,lo8(0)
 3750 14fc 50E0      		ldi r21,hi8(0)
 3751 14fe 0E94 0000 		call clrLED
 3752               	.LM526:
 3753 1502 84E6      		ldi r24,lo8(100)
 3754 1504 90E0      		ldi r25,hi8(100)
 3755 1506 0E94 0000 		call delay_ms
 3756 150a 0F5F      		subi r16,lo8(-(1))
 3757 150c 1F4F      		sbci r17,hi8(-(1))
 3758               	.LM527:
 3759 150e 0330      		cpi r16,3
 3760 1510 1105      		cpc r17,__zero_reg__
 3761 1512 01F0      		breq .+2
 3762 1514 00C0      		rjmp .L175
 3763               	.LM528:
 3764 1516 0894      		sec
 3765 1518 E108      		sbc r14,__zero_reg__
 3766 151a F108      		sbc r15,__zero_reg__
 3767               	.LM529:
 3768 151c E114      		cp r14,__zero_reg__
 3769 151e F104      		cpc r15,__zero_reg__
 3770 1520 01F0      		breq .L171
 3771               	.L173:
 3772               	.LVL326:
 3773               	.LM530:
 3774 1522 02E0      		ldi r16,lo8(2)
 3775 1524 10E0      		ldi r17,hi8(2)
 3776 1526 00C0      		rjmp .L174
 3777               	.LVL327:
 3778               	.L171:
 3779               	/* epilogue start */
 3780               	.LM531:
 3781 1528 DF91      		pop r29
 3782 152a CF91      		pop r28
 3783 152c 1F91      		pop r17
 3784 152e 0F91      		pop r16
 3785 1530 FF90      		pop r15
 3786 1532 EF90      		pop r14
 3787 1534 DF90      		pop r13
 3788 1536 CF90      		pop r12
 3789 1538 0895      		ret
 3790               	.LFE25:
 3792               	.global	Sejla_Damir
 3794               	Sejla_Damir:
 3795               	.LFB22:
 3796               	.LM532:
 3797               	/* prologue: function */
 3798               	/* frame size = 0 */
 3799               	/* stack size = 0 */
 3800               	.L__stack_usage = 0
 3801               	.LM533:
 3802 153a 0E94 0000 		call little_cube
 3803               	.LM534:
 3804 153e 82E0      		ldi r24,lo8(2)
 3805 1540 90E0      		ldi r25,hi8(2)
 3806 1542 62E0      		ldi r22,lo8(2)
 3807 1544 70E0      		ldi r23,hi8(2)
 3808 1546 42E0      		ldi r20,lo8(2)
 3809 1548 50E0      		ldi r21,hi8(2)
 3810 154a 0E94 0000 		call create_cube
 3811               	.LM535:
 3812 154e 0E94 0000 		call pumping_heart
 3813               	/* epilogue start */
 3814               	.LM536:
 3815 1552 0895      		ret
 3816               	.LFE22:
 3818               	.global	grow
 3820               	grow:
 3821               	.LFB29:
 3822               	.LM537:
 3823               	.LVL328:
 3824 1554 2F92      		push r2
 3825 1556 3F92      		push r3
 3826 1558 4F92      		push r4
 3827 155a 5F92      		push r5
 3828 155c 6F92      		push r6
 3829 155e 7F92      		push r7
 3830 1560 8F92      		push r8
 3831 1562 9F92      		push r9
 3832 1564 AF92      		push r10
 3833 1566 BF92      		push r11
 3834 1568 CF92      		push r12
 3835 156a DF92      		push r13
 3836 156c EF92      		push r14
 3837 156e FF92      		push r15
 3838 1570 0F93      		push r16
 3839 1572 1F93      		push r17
 3840 1574 DF93      		push r29
 3841 1576 CF93      		push r28
 3842 1578 CDB7      		in r28,__SP_L__
 3843 157a DEB7      		in r29,__SP_H__
 3844 157c 2E97      		sbiw r28,14
 3845 157e 0FB6      		in __tmp_reg__,__SREG__
 3846 1580 F894      		cli
 3847 1582 DEBF      		out __SP_H__,r29
 3848 1584 0FBE      		out __SREG__,__tmp_reg__
 3849 1586 CDBF      		out __SP_L__,r28
 3850               	/* prologue: function */
 3851               	/* frame size = 14 */
 3852               	/* stack size = 32 */
 3853               	.L__stack_usage = 32
 3854 1588 8987      		std Y+9,r24
 3855 158a 9A87      		std Y+10,r25
 3856 158c 7887      		std Y+8,r23
 3857 158e 6F83      		std Y+7,r22
 3858               	.LVL329:
 3859               	.LM538:
 3860 1590 AEE2      		ldi r26,lo8(46)
 3861 1592 6A2E      		mov r6,r26
 3862 1594 712C      		mov r7,__zero_reg__
 3863               	.LM539:
 3864 1596 1982      		std Y+1,__zero_reg__
 3865 1598 1A82      		std Y+2,__zero_reg__
 3866 159a 1B82      		std Y+3,__zero_reg__
 3867 159c 1C82      		std Y+4,__zero_reg__
 3868               	.LM540:
 3869 159e 5524      		clr r5
 3870 15a0 4424      		clr r4
 3871 15a2 3324      		clr r3
 3872 15a4 2224      		clr r2
 3873 15a6 00C0      		rjmp .L182
 3874               	.LVL330:
 3875               	.L187:
 3876               	.LM541:
 3877 15a8 C701      		movw r24,r14
 3878 15aa 0297      		sbiw r24,2
 3879               	.LBB21:
 3880               	.LM542:
 3881 15ac 889F      		mul r24,r24
 3882 15ae B001      		movw r22,r0
 3883 15b0 899F      		mul r24,r25
 3884 15b2 700D      		add r23,r0
 3885 15b4 989F      		mul r25,r24
 3886 15b6 700D      		add r23,r0
 3887 15b8 1124      		clr r1
 3888 15ba 6A0D      		add r22,r10
 3889 15bc 7B1D      		adc r23,r11
 3890 15be 8827      		clr r24
 3891 15c0 77FD      		sbrc r23,7
 3892 15c2 8095      		com r24
 3893 15c4 982F      		mov r25,r24
 3894 15c6 0E94 0000 		call __floatsisf
 3895 15ca 0E94 0000 		call sqrt
 3896 15ce E981      		ldd r30,Y+1
 3897 15d0 FA81      		ldd r31,Y+2
 3898 15d2 2B81      		ldd r18,Y+3
 3899 15d4 2B87      		std Y+11,r18
 3900 15d6 3C81      		ldd r19,Y+4
 3901 15d8 3C87      		std Y+12,r19
 3902 15da 9F01      		movw r18,r30
 3903 15dc 4B85      		ldd r20,Y+11
 3904 15de 5C85      		ldd r21,Y+12
 3905 15e0 0E94 0000 		call __ltsf2
 3906 15e4 87FD      		sbrc r24,7
 3907 15e6 00C0      		rjmp .L196
 3908               	.L195:
 3909               	.LM543:
 3910 15e8 D801      		movw r26,r16
 3911 15ea 8C91      		ld r24,X
 3912 15ec 8130      		cpi r24,lo8(1)
 3913 15ee 01F4      		brne .L186
 3914               	.L196:
 3915               	.LM544:
 3916 15f0 C601      		movw r24,r12
 3917 15f2 6D85      		ldd r22,Y+13
 3918 15f4 7E85      		ldd r23,Y+14
 3919 15f6 A701      		movw r20,r14
 3920 15f8 0E94 0000 		call setLED
 3921 15fc 00C0      		rjmp .L185
 3922               	.L186:
 3923               	.LM545:
 3924 15fe C601      		movw r24,r12
 3925 1600 6D85      		ldd r22,Y+13
 3926 1602 7E85      		ldd r23,Y+14
 3927 1604 A701      		movw r20,r14
 3928 1606 0E94 0000 		call clrLED
 3929               	.L185:
 3930               	.LBE21:
 3931               	.LM546:
 3932 160a 0894      		sec
 3933 160c E11C      		adc r14,__zero_reg__
 3934 160e F11C      		adc r15,__zero_reg__
 3935               	.LVL331:
 3936 1610 0F5F      		subi r16,lo8(-(1))
 3937 1612 1F4F      		sbci r17,hi8(-(1))
 3938 1614 B5E0      		ldi r27,lo8(5)
 3939 1616 EB16      		cp r14,r27
 3940 1618 F104      		cpc r15,__zero_reg__
 3941 161a 01F4      		brne .L187
 3942 161c 2D85      		ldd r18,Y+13
 3943 161e 3E85      		ldd r19,Y+14
 3944               	.LM547:
 3945 1620 2F5F      		subi r18,lo8(-(1))
 3946 1622 3F4F      		sbci r19,hi8(-(1))
 3947               	.LVL332:
 3948 1624 2530      		cpi r18,5
 3949 1626 3105      		cpc r19,__zero_reg__
 3950 1628 01F0      		breq .L188
 3951               	.LVL333:
 3952               	.L190:
 3953               	.LM548:
 3954 162a C901      		movw r24,r18
 3955 162c 0297      		sbiw r24,2
 3956               	.LBB22:
 3957               	.LM549:
 3958 162e 889F      		mul r24,r24
 3959 1630 5001      		movw r10,r0
 3960 1632 899F      		mul r24,r25
 3961 1634 B00C      		add r11,r0
 3962 1636 989F      		mul r25,r24
 3963 1638 B00C      		add r11,r0
 3964 163a 1124      		clr r1
 3965 163c ED81      		ldd r30,Y+5
 3966 163e FE81      		ldd r31,Y+6
 3967 1640 AE0E      		add r10,r30
 3968 1642 BF1E      		adc r11,r31
 3969               	.LM550:
 3970 1644 8901      		movw r16,r18
 3971 1646 000F      		lsl r16
 3972 1648 111F      		rol r17
 3973 164a 000F      		lsl r16
 3974 164c 111F      		rol r17
 3975 164e 020F      		add r16,r18
 3976 1650 131F      		adc r17,r19
 3977 1652 080D      		add r16,r8
 3978 1654 191D      		adc r17,r9
 3979               	.LBE22:
 3980 1656 EE24      		clr r14
 3981 1658 FF24      		clr r15
 3982 165a 3E87      		std Y+14,r19
 3983 165c 2D87      		std Y+13,r18
 3984 165e 00C0      		rjmp .L187
 3985               	.LVL334:
 3986               	.L188:
 3987               	.LM551:
 3988 1660 0894      		sec
 3989 1662 C11C      		adc r12,__zero_reg__
 3990 1664 D11C      		adc r13,__zero_reg__
 3991               	.LVL335:
 3992 1666 29E1      		ldi r18,lo8(25)
 3993 1668 30E0      		ldi r19,hi8(25)
 3994               	.LVL336:
 3995 166a 820E      		add r8,r18
 3996 166c 931E      		adc r9,r19
 3997 166e 35E0      		ldi r19,lo8(5)
 3998 1670 C316      		cp r12,r19
 3999 1672 D104      		cpc r13,__zero_reg__
 4000 1674 01F0      		breq .L189
 4001               	.LVL337:
 4002               	.L192:
 4003               	.LM552:
 4004 1676 C601      		movw r24,r12
 4005 1678 0297      		sbiw r24,2
 4006               	.LBB23:
 4007               	.LM553:
 4008 167a 889F      		mul r24,r24
 4009 167c D001      		movw r26,r0
 4010 167e 899F      		mul r24,r25
 4011 1680 B00D      		add r27,r0
 4012 1682 989F      		mul r25,r24
 4013 1684 B00D      		add r27,r0
 4014 1686 1124      		clr r1
 4015 1688 BE83      		std Y+6,r27
 4016 168a AD83      		std Y+5,r26
 4017 168c 20E0      		ldi r18,lo8(0)
 4018 168e 30E0      		ldi r19,hi8(0)
 4019 1690 00C0      		rjmp .L190
 4020               	.LVL338:
 4021               	.L189:
 4022               	.LBE23:
 4023               	.LM554:
 4024 1692 A201      		movw r20,r4
 4025 1694 9101      		movw r18,r2
 4026 1696 652F      		mov r22,r21
 4027 1698 742D      		mov r23,r4
 4028 169a 832F      		mov r24,r19
 4029 169c 922D      		mov r25,r2
 4030 169e 20E0      		ldi r18,lo8(0x41200000)
 4031 16a0 30E0      		ldi r19,hi8(0x41200000)
 4032 16a2 40E2      		ldi r20,hlo8(0x41200000)
 4033 16a4 51E4      		ldi r21,hhi8(0x41200000)
 4034 16a6 0E94 0000 		call __divsf3
 4035 16aa 6983      		std Y+1,r22
 4036 16ac 7A83      		std Y+2,r23
 4037 16ae 8B83      		std Y+3,r24
 4038 16b0 9C83      		std Y+4,r25
 4039               	.LVL339:
 4040               	.LM555:
 4041 16b2 8F81      		ldd r24,Y+7
 4042 16b4 9885      		ldd r25,Y+8
 4043               	.LVL340:
 4044 16b6 0E94 0000 		call delay_ms
 4045               	.LVL341:
 4046               	.LM556:
 4047 16ba A201      		movw r20,r4
 4048 16bc 9101      		movw r18,r2
 4049 16be 652F      		mov r22,r21
 4050 16c0 742D      		mov r23,r4
 4051 16c2 832F      		mov r24,r19
 4052 16c4 922D      		mov r25,r2
 4053 16c6 20E0      		ldi r18,lo8(0x3f800000)
 4054 16c8 30E0      		ldi r19,hi8(0x3f800000)
 4055 16ca 40E8      		ldi r20,hlo8(0x3f800000)
 4056 16cc 5FE3      		ldi r21,hhi8(0x3f800000)
 4057 16ce 0E94 0000 		call __addsf3
 4058 16d2 562E      		mov r5,r22
 4059               	.LVL342:
 4060 16d4 472E      		mov r4,r23
 4061 16d6 382E      		mov r3,r24
 4062 16d8 292E      		mov r2,r25
 4063               	.LVL343:
 4064               	.L182:
 4065               	.LM557:
 4066 16da 0894      		sec
 4067 16dc 6108      		sbc r6,__zero_reg__
 4068 16de 7108      		sbc r7,__zero_reg__
 4069 16e0 6114      		cp r6,__zero_reg__
 4070 16e2 7104      		cpc r7,__zero_reg__
 4071 16e4 01F0      		breq .L181
 4072               	.LM558:
 4073 16e6 9985      		ldd r25,Y+9
 4074 16e8 8A85      		ldd r24,Y+10
 4075 16ea 892E      		mov r8,r25
 4076 16ec 982E      		mov r9,r24
 4077 16ee CC24      		clr r12
 4078 16f0 DD24      		clr r13
 4079 16f2 00C0      		rjmp .L192
 4080               	.L181:
 4081               	/* epilogue start */
 4082               	.LM559:
 4083 16f4 2E96      		adiw r28,14
 4084               	.LVL344:
 4085 16f6 0FB6      		in __tmp_reg__,__SREG__
 4086 16f8 F894      		cli
 4087 16fa DEBF      		out __SP_H__,r29
 4088 16fc 0FBE      		out __SREG__,__tmp_reg__
 4089 16fe CDBF      		out __SP_L__,r28
 4090               	.LVL345:
 4091 1700 CF91      		pop r28
 4092 1702 DF91      		pop r29
 4093               	.LVL346:
 4094 1704 1F91      		pop r17
 4095 1706 0F91      		pop r16
 4096 1708 FF90      		pop r15
 4097 170a EF90      		pop r14
 4098 170c DF90      		pop r13
 4099 170e CF90      		pop r12
 4100 1710 BF90      		pop r11
 4101 1712 AF90      		pop r10
 4102 1714 9F90      		pop r9
 4103 1716 8F90      		pop r8
 4104 1718 7F90      		pop r7
 4105 171a 6F90      		pop r6
 4106 171c 5F90      		pop r5
 4107               	.LVL347:
 4108 171e 4F90      		pop r4
 4109 1720 3F90      		pop r3
 4110 1722 2F90      		pop r2
 4111 1724 0895      		ret
 4112               	.LFE29:
 4114               	.global	grow2
 4116               	grow2:
 4117               	.LFB30:
 4118               	.LM560:
 4119               	.LVL348:
 4120 1726 2F92      		push r2
 4121 1728 3F92      		push r3
 4122 172a 4F92      		push r4
 4123 172c 5F92      		push r5
 4124 172e 6F92      		push r6
 4125 1730 7F92      		push r7
 4126 1732 8F92      		push r8
 4127 1734 9F92      		push r9
 4128 1736 AF92      		push r10
 4129 1738 BF92      		push r11
 4130 173a CF92      		push r12
 4131 173c DF92      		push r13
 4132 173e EF92      		push r14
 4133 1740 FF92      		push r15
 4134 1742 0F93      		push r16
 4135 1744 1F93      		push r17
 4136 1746 DF93      		push r29
 4137 1748 CF93      		push r28
 4138 174a CDB7      		in r28,__SP_L__
 4139 174c DEB7      		in r29,__SP_H__
 4140 174e 2A97      		sbiw r28,10
 4141 1750 0FB6      		in __tmp_reg__,__SREG__
 4142 1752 F894      		cli
 4143 1754 DEBF      		out __SP_H__,r29
 4144 1756 0FBE      		out __SREG__,__tmp_reg__
 4145 1758 CDBF      		out __SP_L__,r28
 4146               	/* prologue: function */
 4147               	/* frame size = 10 */
 4148               	/* stack size = 28 */
 4149               	.L__stack_usage = 28
 4150 175a 7887      		std Y+8,r23
 4151 175c 6F83      		std Y+7,r22
 4152               	.LVL349:
 4153               	.LM561:
 4154 175e B1E2      		ldi r27,lo8(33)
 4155 1760 6B2E      		mov r6,r27
 4156 1762 712C      		mov r7,__zero_reg__
 4157               	.LM562:
 4158 1764 5524      		clr r5
 4159 1766 4424      		clr r4
 4160 1768 3324      		clr r3
 4161 176a 2224      		clr r2
 4162               	.LM563:
 4163 176c 1982      		std Y+1,__zero_reg__
 4164 176e 1A82      		std Y+2,__zero_reg__
 4165 1770 20E8      		ldi r18,lo8(-128)
 4166 1772 2B83      		std Y+3,r18
 4167 1774 30E4      		ldi r19,lo8(64)
 4168 1776 3C83      		std Y+4,r19
 4169 1778 00C0      		rjmp .L198
 4170               	.LVL350:
 4171               	.L204:
 4172               	.LM564:
 4173 177a 8985      		ldd r24,Y+9
 4174 177c 9A85      		ldd r25,Y+10
 4175 177e 0297      		sbiw r24,2
 4176               	.LBB24:
 4177               	.LM565:
 4178 1780 889F      		mul r24,r24
 4179 1782 B001      		movw r22,r0
 4180 1784 899F      		mul r24,r25
 4181 1786 700D      		add r23,r0
 4182 1788 989F      		mul r25,r24
 4183 178a 700D      		add r23,r0
 4184 178c 1124      		clr r1
 4185 178e 6C0D      		add r22,r12
 4186 1790 7D1D      		adc r23,r13
 4187 1792 8827      		clr r24
 4188 1794 77FD      		sbrc r23,7
 4189 1796 8095      		com r24
 4190 1798 982F      		mov r25,r24
 4191 179a 0E94 0000 		call __floatsisf
 4192 179e 4B01      		movw r8,r22
 4193 17a0 5C01      		movw r10,r24
 4194 17a2 0E94 0000 		call sqrt
 4195 17a6 E52D      		mov r30,r5
 4196 17a8 F42D      		mov r31,r4
 4197 17aa A32D      		mov r26,r3
 4198 17ac B22D      		mov r27,r2
 4199 17ae 9F01      		movw r18,r30
 4200 17b0 AD01      		movw r20,r26
 4201 17b2 0E94 0000 		call __ltsf2
 4202 17b6 87FF      		sbrs r24,7
 4203 17b8 00C0      		rjmp .L214
 4204               	.LM566:
 4205 17ba C701      		movw r24,r14
 4206 17bc B801      		movw r22,r16
 4207 17be 4985      		ldd r20,Y+9
 4208 17c0 5A85      		ldd r21,Y+10
 4209 17c2 0E94 0000 		call setLED
 4210 17c6 00C0      		rjmp .L201
 4211               	.L214:
 4212               	.LM567:
 4213 17c8 C701      		movw r24,r14
 4214 17ca B801      		movw r22,r16
 4215 17cc 4985      		ldd r20,Y+9
 4216 17ce 5A85      		ldd r21,Y+10
 4217 17d0 0E94 0000 		call clrLED
 4218               	.L201:
 4219               	.LBE24:
 4220               	.LBB25:
 4221               	.LM568:
 4222 17d4 C501      		movw r24,r10
 4223 17d6 B401      		movw r22,r8
 4224 17d8 0E94 0000 		call sqrt
 4225 17dc 4B01      		movw r8,r22
 4226 17de 5C01      		movw r10,r24
 4227 17e0 A201      		movw r20,r4
 4228 17e2 9101      		movw r18,r2
 4229 17e4 652F      		mov r22,r21
 4230 17e6 742D      		mov r23,r4
 4231 17e8 832F      		mov r24,r19
 4232 17ea 922D      		mov r25,r2
 4233 17ec 23E3      		ldi r18,lo8(0x3f333333)
 4234 17ee 33E3      		ldi r19,hi8(0x3f333333)
 4235 17f0 43E3      		ldi r20,hlo8(0x3f333333)
 4236 17f2 5FE3      		ldi r21,hhi8(0x3f333333)
 4237 17f4 0E94 0000 		call __subsf3
 4238 17f8 9B01      		movw r18,r22
 4239 17fa AC01      		movw r20,r24
 4240 17fc C501      		movw r24,r10
 4241 17fe B401      		movw r22,r8
 4242 1800 0E94 0000 		call __ltsf2
 4243 1804 87FF      		sbrs r24,7
 4244 1806 00C0      		rjmp .L202
 4245               	.LM569:
 4246 1808 C701      		movw r24,r14
 4247 180a B801      		movw r22,r16
 4248 180c 4985      		ldd r20,Y+9
 4249 180e 5A85      		ldd r21,Y+10
 4250 1810 0E94 0000 		call clrLED
 4251               	.L202:
 4252               	.LBE25:
 4253               	.LM570:
 4254 1814 8985      		ldd r24,Y+9
 4255 1816 9A85      		ldd r25,Y+10
 4256 1818 0196      		adiw r24,1
 4257 181a 9A87      		std Y+10,r25
 4258 181c 8987      		std Y+9,r24
 4259               	.LVL351:
 4260 181e 8530      		cpi r24,5
 4261 1820 9105      		cpc r25,__zero_reg__
 4262 1822 01F0      		breq .+2
 4263 1824 00C0      		rjmp .L204
 4264               	.LM571:
 4265 1826 0F5F      		subi r16,lo8(-(1))
 4266 1828 1F4F      		sbci r17,hi8(-(1))
 4267               	.LVL352:
 4268 182a 0530      		cpi r16,5
 4269 182c 1105      		cpc r17,__zero_reg__
 4270 182e 01F0      		breq .L205
 4271               	.LVL353:
 4272               	.L208:
 4273               	.LM572:
 4274 1830 C801      		movw r24,r16
 4275 1832 0297      		sbiw r24,2
 4276               	.LBB26:
 4277               	.LM573:
 4278 1834 889F      		mul r24,r24
 4279 1836 6001      		movw r12,r0
 4280 1838 899F      		mul r24,r25
 4281 183a D00C      		add r13,r0
 4282 183c 989F      		mul r25,r24
 4283 183e D00C      		add r13,r0
 4284 1840 1124      		clr r1
 4285 1842 ED81      		ldd r30,Y+5
 4286 1844 FE81      		ldd r31,Y+6
 4287 1846 CE0E      		add r12,r30
 4288 1848 DF1E      		adc r13,r31
 4289 184a 80E0      		ldi r24,lo8(0)
 4290 184c 90E0      		ldi r25,hi8(0)
 4291 184e 9A87      		std Y+10,r25
 4292 1850 8987      		std Y+9,r24
 4293 1852 00C0      		rjmp .L204
 4294               	.LVL354:
 4295               	.L205:
 4296               	.LBE26:
 4297               	.LM574:
 4298 1854 0894      		sec
 4299 1856 E11C      		adc r14,__zero_reg__
 4300 1858 F11C      		adc r15,__zero_reg__
 4301               	.LVL355:
 4302 185a F5E0      		ldi r31,lo8(5)
 4303 185c EF16      		cp r14,r31
 4304 185e F104      		cpc r15,__zero_reg__
 4305 1860 01F4      		brne .L206
 4306 1862 00C0      		rjmp .L216
 4307               	.LVL356:
 4308               	.L209:
 4309               	.LM575:
 4310 1864 EE24      		clr r14
 4311 1866 FF24      		clr r15
 4312               	.L206:
 4313               	.LVL357:
 4314               	.LM576:
 4315 1868 C701      		movw r24,r14
 4316 186a 0297      		sbiw r24,2
 4317               	.LBB27:
 4318               	.LM577:
 4319 186c 889F      		mul r24,r24
 4320 186e 9001      		movw r18,r0
 4321 1870 899F      		mul r24,r25
 4322 1872 300D      		add r19,r0
 4323 1874 989F      		mul r25,r24
 4324 1876 300D      		add r19,r0
 4325 1878 1124      		clr r1
 4326 187a 3E83      		std Y+6,r19
 4327 187c 2D83      		std Y+5,r18
 4328 187e 00E0      		ldi r16,lo8(0)
 4329 1880 10E0      		ldi r17,hi8(0)
 4330 1882 00C0      		rjmp .L208
 4331               	.LVL358:
 4332               	.L216:
 4333               	.LBE27:
 4334               	.LM578:
 4335 1884 5981      		ldd r21,Y+1
 4336 1886 4A81      		ldd r20,Y+2
 4337 1888 3B81      		ldd r19,Y+3
 4338 188a 2C81      		ldd r18,Y+4
 4339 188c 652F      		mov r22,r21
 4340 188e 742F      		mov r23,r20
 4341 1890 832F      		mov r24,r19
 4342               	.LVL359:
 4343 1892 922F      		mov r25,r18
 4344 1894 20E0      		ldi r18,lo8(0x41200000)
 4345 1896 30E0      		ldi r19,hi8(0x41200000)
 4346 1898 40E2      		ldi r20,hlo8(0x41200000)
 4347 189a 51E4      		ldi r21,hhi8(0x41200000)
 4348 189c 0E94 0000 		call __divsf3
 4349 18a0 562E      		mov r5,r22
 4350               	.LVL360:
 4351 18a2 472E      		mov r4,r23
 4352 18a4 382E      		mov r3,r24
 4353 18a6 292E      		mov r2,r25
 4354               	.LVL361:
 4355               	.LM579:
 4356 18a8 8F81      		ldd r24,Y+7
 4357 18aa 9885      		ldd r25,Y+8
 4358               	.LVL362:
 4359 18ac 0E94 0000 		call delay_ms
 4360               	.LVL363:
 4361               	.LM580:
 4362 18b0 5981      		ldd r21,Y+1
 4363 18b2 4A81      		ldd r20,Y+2
 4364 18b4 3B81      		ldd r19,Y+3
 4365 18b6 2C81      		ldd r18,Y+4
 4366 18b8 652F      		mov r22,r21
 4367 18ba 742F      		mov r23,r20
 4368 18bc 832F      		mov r24,r19
 4369 18be 922F      		mov r25,r18
 4370 18c0 20E0      		ldi r18,lo8(0x3f800000)
 4371 18c2 30E0      		ldi r19,hi8(0x3f800000)
 4372 18c4 40E8      		ldi r20,hlo8(0x3f800000)
 4373 18c6 5FE3      		ldi r21,hhi8(0x3f800000)
 4374 18c8 0E94 0000 		call __addsf3
 4375 18cc 6983      		std Y+1,r22
 4376 18ce 7A83      		std Y+2,r23
 4377 18d0 8B83      		std Y+3,r24
 4378 18d2 9C83      		std Y+4,r25
 4379               	.LVL364:
 4380               	.L198:
 4381               	.LM581:
 4382 18d4 0894      		sec
 4383 18d6 6108      		sbc r6,__zero_reg__
 4384 18d8 7108      		sbc r7,__zero_reg__
 4385 18da 6114      		cp r6,__zero_reg__
 4386 18dc 7104      		cpc r7,__zero_reg__
 4387 18de 01F4      		brne .L209
 4388               	/* epilogue start */
 4389               	.LM582:
 4390 18e0 2A96      		adiw r28,10
 4391               	.LVL365:
 4392 18e2 0FB6      		in __tmp_reg__,__SREG__
 4393 18e4 F894      		cli
 4394 18e6 DEBF      		out __SP_H__,r29
 4395 18e8 0FBE      		out __SREG__,__tmp_reg__
 4396 18ea CDBF      		out __SP_L__,r28
 4397               	.LVL366:
 4398 18ec CF91      		pop r28
 4399 18ee DF91      		pop r29
 4400               	.LVL367:
 4401 18f0 1F91      		pop r17
 4402 18f2 0F91      		pop r16
 4403 18f4 FF90      		pop r15
 4404 18f6 EF90      		pop r14
 4405 18f8 DF90      		pop r13
 4406 18fa CF90      		pop r12
 4407 18fc BF90      		pop r11
 4408 18fe AF90      		pop r10
 4409 1900 9F90      		pop r9
 4410 1902 8F90      		pop r8
 4411 1904 7F90      		pop r7
 4412 1906 6F90      		pop r6
 4413 1908 5F90      		pop r5
 4414               	.LVL368:
 4415 190a 4F90      		pop r4
 4416 190c 3F90      		pop r3
 4417 190e 2F90      		pop r2
 4418 1910 0895      		ret
 4419               	.LFE30:
 4421               	.global	effect_rings
 4423               	effect_rings:
 4424               	.LFB27:
 4425               	.LM583:
 4426               	.LVL369:
 4427 1912 DF93      		push r29
 4428 1914 CF93      		push r28
 4429 1916 CDB7      		in r28,__SP_L__
 4430 1918 DEB7      		in r29,__SP_H__
 4431 191a CD57      		subi r28,lo8(-(-125))
 4432 191c D040      		sbci r29,hi8(-(-125))
 4433 191e 0FB6      		in __tmp_reg__,__SREG__
 4434 1920 F894      		cli
 4435 1922 DEBF      		out __SP_H__,r29
 4436 1924 0FBE      		out __SREG__,__tmp_reg__
 4437 1926 CDBF      		out __SP_L__,r28
 4438               	/* prologue: function */
 4439               	/* frame size = 125 */
 4440               	/* stack size = 127 */
 4441               	.L__stack_usage = 127
 4442 1928 BA01      		movw r22,r20
 4443               	.LVL370:
 4444               	.LM584:
 4445 192a 80E0      		ldi r24,lo8(0)
 4446 192c 90E0      		ldi r25,hi8(0)
 4447               	.LVL371:
 4448               	.LM585:
 4449 192e A9E1      		ldi r26,lo8(25)
 4450 1930 B0E0      		ldi r27,hi8(25)
 4451 1932 AE01      		movw r20,r28
 4452               	.LVL372:
 4453 1934 4F5F      		subi r20,lo8(-(1))
 4454 1936 5F4F      		sbci r21,hi8(-(1))
 4455 1938 00C0      		rjmp .L218
 4456               	.LVL373:
 4457               	.L219:
 4458               	.LM586:
 4459 193a 1082      		st Z,__zero_reg__
 4460               	.LVL374:
 4461 193c 1182      		std Z+1,__zero_reg__
 4462               	.LVL375:
 4463 193e 1282      		std Z+2,__zero_reg__
 4464               	.LVL376:
 4465 1940 1382      		std Z+3,__zero_reg__
 4466               	.LVL377:
 4467 1942 1482      		std Z+4,__zero_reg__
 4468               	.LVL378:
 4469 1944 2150      		subi r18,lo8(-(-1))
 4470 1946 3040      		sbci r19,hi8(-(-1))
 4471 1948 3596      		adiw r30,5
 4472               	.LM587:
 4473 194a 2115      		cp r18,__zero_reg__
 4474 194c 3105      		cpc r19,__zero_reg__
 4475 194e 01F4      		brne .L219
 4476               	.LM588:
 4477 1950 0196      		adiw r24,1
 4478               	.LVL379:
 4479 1952 8530      		cpi r24,5
 4480 1954 9105      		cpc r25,__zero_reg__
 4481 1956 01F0      		breq .L220
 4482               	.LVL380:
 4483               	.L218:
 4484               	.LM589:
 4485 1958 8A9F      		mul r24,r26
 4486 195a F001      		movw r30,r0
 4487 195c 8B9F      		mul r24,r27
 4488 195e F00D      		add r31,r0
 4489 1960 9A9F      		mul r25,r26
 4490 1962 F00D      		add r31,r0
 4491 1964 1124      		clr r1
 4492 1966 E40F      		add r30,r20
 4493 1968 F51F      		adc r31,r21
 4494 196a 25E0      		ldi r18,lo8(5)
 4495 196c 30E0      		ldi r19,hi8(5)
 4496 196e 00C0      		rjmp .L219
 4497               	.LVL381:
 4498               	.L220:
 4499               	.LM590:
 4500 1970 CE01      		movw r24,r28
 4501               	.LVL382:
 4502 1972 0196      		adiw r24,1
 4503 1974 0E94 0000 		call grow2
 4504               	.LVL383:
 4505               	/* epilogue start */
 4506               	.LM591:
 4507 1978 C358      		subi r28,lo8(-(125))
 4508 197a DF4F      		sbci r29,hi8(-(125))
 4509 197c 0FB6      		in __tmp_reg__,__SREG__
 4510 197e F894      		cli
 4511 1980 DEBF      		out __SP_H__,r29
 4512 1982 0FBE      		out __SREG__,__tmp_reg__
 4513 1984 CDBF      		out __SP_L__,r28
 4514 1986 CF91      		pop r28
 4515 1988 DF91      		pop r29
 4516 198a 0895      		ret
 4517               	.LFE27:
 4519               	.global	shrink
 4521               	shrink:
 4522               	.LFB31:
 4523               	.LM592:
 4524               	.LVL384:
 4525 198c 2F92      		push r2
 4526 198e 3F92      		push r3
 4527 1990 4F92      		push r4
 4528 1992 5F92      		push r5
 4529 1994 6F92      		push r6
 4530 1996 7F92      		push r7
 4531 1998 8F92      		push r8
 4532 199a 9F92      		push r9
 4533 199c AF92      		push r10
 4534 199e BF92      		push r11
 4535 19a0 CF92      		push r12
 4536 19a2 DF92      		push r13
 4537 19a4 EF92      		push r14
 4538 19a6 FF92      		push r15
 4539 19a8 0F93      		push r16
 4540 19aa 1F93      		push r17
 4541 19ac DF93      		push r29
 4542 19ae CF93      		push r28
 4543 19b0 CDB7      		in r28,__SP_L__
 4544 19b2 DEB7      		in r29,__SP_H__
 4545 19b4 2E97      		sbiw r28,14
 4546 19b6 0FB6      		in __tmp_reg__,__SREG__
 4547 19b8 F894      		cli
 4548 19ba DEBF      		out __SP_H__,r29
 4549 19bc 0FBE      		out __SREG__,__tmp_reg__
 4550 19be CDBF      		out __SP_L__,r28
 4551               	/* prologue: function */
 4552               	/* frame size = 14 */
 4553               	/* stack size = 32 */
 4554               	.L__stack_usage = 32
 4555 19c0 8D83      		std Y+5,r24
 4556 19c2 9E83      		std Y+6,r25
 4557 19c4 7C83      		std Y+4,r23
 4558 19c6 6B83      		std Y+3,r22
 4559               	.LVL385:
 4560               	.LM593:
 4561 19c8 3FE2      		ldi r19,lo8(47)
 4562 19ca 632E      		mov r6,r19
 4563 19cc 712C      		mov r7,__zero_reg__
 4564 19ce 5524      		clr r5
 4565 19d0 4424      		clr r4
 4566 19d2 24E3      		ldi r18,lo8(52)
 4567 19d4 322E      		mov r3,r18
 4568 19d6 92E4      		ldi r25,lo8(66)
 4569 19d8 292E      		mov r2,r25
 4570 19da 00C0      		rjmp .L223
 4571               	.LVL386:
 4572               	.L233:
 4573               	.LM594:
 4574 19dc A201      		movw r20,r4
 4575 19de 9101      		movw r18,r2
 4576 19e0 652F      		mov r22,r21
 4577 19e2 742D      		mov r23,r4
 4578 19e4 832F      		mov r24,r19
 4579 19e6 922D      		mov r25,r2
 4580 19e8 20E0      		ldi r18,lo8(0x41200000)
 4581 19ea 30E0      		ldi r19,hi8(0x41200000)
 4582 19ec 40E2      		ldi r20,hlo8(0x41200000)
 4583 19ee 51E4      		ldi r21,hhi8(0x41200000)
 4584 19f0 0E94 0000 		call __divsf3
 4585 19f4 6F83      		std Y+7,r22
 4586 19f6 7887      		std Y+8,r23
 4587 19f8 8987      		std Y+9,r24
 4588 19fa 9A87      		std Y+10,r25
 4589               	.LVL387:
 4590 19fc 9D81      		ldd r25,Y+5
 4591               	.LVL388:
 4592 19fe 8E81      		ldd r24,Y+6
 4593               	.LVL389:
 4594 1a00 892E      		mov r8,r25
 4595 1a02 982E      		mov r9,r24
 4596               	.LM595:
 4597 1a04 CC24      		clr r12
 4598 1a06 DD24      		clr r13
 4599 1a08 00C0      		rjmp .L224
 4600               	.LVL390:
 4601               	.L229:
 4602               	.LM596:
 4603 1a0a C701      		movw r24,r14
 4604 1a0c 0297      		sbiw r24,2
 4605               	.LBB28:
 4606               	.LM597:
 4607 1a0e 889F      		mul r24,r24
 4608 1a10 B001      		movw r22,r0
 4609 1a12 899F      		mul r24,r25
 4610 1a14 700D      		add r23,r0
 4611 1a16 989F      		mul r25,r24
 4612 1a18 700D      		add r23,r0
 4613 1a1a 1124      		clr r1
 4614 1a1c 6A0D      		add r22,r10
 4615 1a1e 7B1D      		adc r23,r11
 4616 1a20 8827      		clr r24
 4617 1a22 77FD      		sbrc r23,7
 4618 1a24 8095      		com r24
 4619 1a26 982F      		mov r25,r24
 4620 1a28 0E94 0000 		call __floatsisf
 4621 1a2c 0E94 0000 		call sqrt
 4622 1a30 EF81      		ldd r30,Y+7
 4623 1a32 F885      		ldd r31,Y+8
 4624 1a34 2985      		ldd r18,Y+9
 4625 1a36 2B87      		std Y+11,r18
 4626 1a38 3A85      		ldd r19,Y+10
 4627 1a3a 3C87      		std Y+12,r19
 4628 1a3c 9F01      		movw r18,r30
 4629 1a3e 4B85      		ldd r20,Y+11
 4630 1a40 5C85      		ldd r21,Y+12
 4631 1a42 0E94 0000 		call __ltsf2
 4632 1a46 87FD      		sbrc r24,7
 4633 1a48 00C0      		rjmp .L237
 4634               	.L236:
 4635               	.LM598:
 4636 1a4a D801      		movw r26,r16
 4637 1a4c 8C91      		ld r24,X
 4638 1a4e 8130      		cpi r24,lo8(1)
 4639 1a50 01F4      		brne .L228
 4640               	.L237:
 4641               	.LM599:
 4642 1a52 C601      		movw r24,r12
 4643 1a54 6D85      		ldd r22,Y+13
 4644 1a56 7E85      		ldd r23,Y+14
 4645 1a58 A701      		movw r20,r14
 4646 1a5a 0E94 0000 		call setLED
 4647 1a5e 00C0      		rjmp .L227
 4648               	.L228:
 4649               	.LM600:
 4650 1a60 C601      		movw r24,r12
 4651 1a62 6D85      		ldd r22,Y+13
 4652 1a64 7E85      		ldd r23,Y+14
 4653 1a66 A701      		movw r20,r14
 4654 1a68 0E94 0000 		call clrLED
 4655               	.L227:
 4656               	.LBE28:
 4657               	.LM601:
 4658 1a6c 0894      		sec
 4659 1a6e E11C      		adc r14,__zero_reg__
 4660 1a70 F11C      		adc r15,__zero_reg__
 4661               	.LVL391:
 4662 1a72 0F5F      		subi r16,lo8(-(1))
 4663 1a74 1F4F      		sbci r17,hi8(-(1))
 4664 1a76 B5E0      		ldi r27,lo8(5)
 4665 1a78 EB16      		cp r14,r27
 4666 1a7a F104      		cpc r15,__zero_reg__
 4667 1a7c 01F4      		brne .L229
 4668 1a7e 2D85      		ldd r18,Y+13
 4669 1a80 3E85      		ldd r19,Y+14
 4670               	.LM602:
 4671 1a82 2F5F      		subi r18,lo8(-(1))
 4672 1a84 3F4F      		sbci r19,hi8(-(1))
 4673               	.LVL392:
 4674 1a86 2530      		cpi r18,5
 4675 1a88 3105      		cpc r19,__zero_reg__
 4676 1a8a 01F0      		breq .L230
 4677               	.LVL393:
 4678               	.L232:
 4679               	.LM603:
 4680 1a8c C901      		movw r24,r18
 4681 1a8e 0297      		sbiw r24,2
 4682               	.LBB29:
 4683               	.LM604:
 4684 1a90 889F      		mul r24,r24
 4685 1a92 5001      		movw r10,r0
 4686 1a94 899F      		mul r24,r25
 4687 1a96 B00C      		add r11,r0
 4688 1a98 989F      		mul r25,r24
 4689 1a9a B00C      		add r11,r0
 4690 1a9c 1124      		clr r1
 4691 1a9e E981      		ldd r30,Y+1
 4692 1aa0 FA81      		ldd r31,Y+2
 4693 1aa2 AE0E      		add r10,r30
 4694 1aa4 BF1E      		adc r11,r31
 4695               	.LM605:
 4696 1aa6 8901      		movw r16,r18
 4697 1aa8 000F      		lsl r16
 4698 1aaa 111F      		rol r17
 4699 1aac 000F      		lsl r16
 4700 1aae 111F      		rol r17
 4701 1ab0 020F      		add r16,r18
 4702 1ab2 131F      		adc r17,r19
 4703 1ab4 080D      		add r16,r8
 4704 1ab6 191D      		adc r17,r9
 4705               	.LBE29:
 4706 1ab8 EE24      		clr r14
 4707 1aba FF24      		clr r15
 4708 1abc 3E87      		std Y+14,r19
 4709 1abe 2D87      		std Y+13,r18
 4710 1ac0 00C0      		rjmp .L229
 4711               	.LVL394:
 4712               	.L230:
 4713               	.LM606:
 4714 1ac2 0894      		sec
 4715 1ac4 C11C      		adc r12,__zero_reg__
 4716 1ac6 D11C      		adc r13,__zero_reg__
 4717               	.LVL395:
 4718 1ac8 29E1      		ldi r18,lo8(25)
 4719 1aca 30E0      		ldi r19,hi8(25)
 4720               	.LVL396:
 4721 1acc 820E      		add r8,r18
 4722 1ace 931E      		adc r9,r19
 4723 1ad0 35E0      		ldi r19,lo8(5)
 4724 1ad2 C316      		cp r12,r19
 4725 1ad4 D104      		cpc r13,__zero_reg__
 4726 1ad6 01F0      		breq .L231
 4727               	.LVL397:
 4728               	.L224:
 4729               	.LM607:
 4730 1ad8 C601      		movw r24,r12
 4731 1ada 0297      		sbiw r24,2
 4732               	.LBB30:
 4733               	.LM608:
 4734 1adc 889F      		mul r24,r24
 4735 1ade D001      		movw r26,r0
 4736 1ae0 899F      		mul r24,r25
 4737 1ae2 B00D      		add r27,r0
 4738 1ae4 989F      		mul r25,r24
 4739 1ae6 B00D      		add r27,r0
 4740 1ae8 1124      		clr r1
 4741 1aea BA83      		std Y+2,r27
 4742 1aec A983      		std Y+1,r26
 4743 1aee 20E0      		ldi r18,lo8(0)
 4744 1af0 30E0      		ldi r19,hi8(0)
 4745 1af2 00C0      		rjmp .L232
 4746               	.LVL398:
 4747               	.L231:
 4748               	.LBE30:
 4749               	.LM609:
 4750 1af4 8B81      		ldd r24,Y+3
 4751 1af6 9C81      		ldd r25,Y+4
 4752 1af8 0E94 0000 		call delay_ms
 4753               	.LM610:
 4754 1afc A201      		movw r20,r4
 4755 1afe 9101      		movw r18,r2
 4756 1b00 652F      		mov r22,r21
 4757 1b02 742D      		mov r23,r4
 4758 1b04 832F      		mov r24,r19
 4759 1b06 922D      		mov r25,r2
 4760 1b08 20E0      		ldi r18,lo8(0x3f800000)
 4761 1b0a 30E0      		ldi r19,hi8(0x3f800000)
 4762 1b0c 40E8      		ldi r20,hlo8(0x3f800000)
 4763 1b0e 5FE3      		ldi r21,hhi8(0x3f800000)
 4764 1b10 0E94 0000 		call __subsf3
 4765 1b14 562E      		mov r5,r22
 4766               	.LVL399:
 4767 1b16 472E      		mov r4,r23
 4768 1b18 382E      		mov r3,r24
 4769 1b1a 292E      		mov r2,r25
 4770               	.LVL400:
 4771               	.L223:
 4772               	.LM611:
 4773 1b1c 0894      		sec
 4774 1b1e 6108      		sbc r6,__zero_reg__
 4775 1b20 7108      		sbc r7,__zero_reg__
 4776 1b22 6114      		cp r6,__zero_reg__
 4777 1b24 7104      		cpc r7,__zero_reg__
 4778 1b26 01F0      		breq .+2
 4779 1b28 00C0      		rjmp .L233
 4780               	/* epilogue start */
 4781               	.LM612:
 4782 1b2a 2E96      		adiw r28,14
 4783               	.LVL401:
 4784 1b2c 0FB6      		in __tmp_reg__,__SREG__
 4785 1b2e F894      		cli
 4786 1b30 DEBF      		out __SP_H__,r29
 4787 1b32 0FBE      		out __SREG__,__tmp_reg__
 4788 1b34 CDBF      		out __SP_L__,r28
 4789               	.LVL402:
 4790 1b36 CF91      		pop r28
 4791 1b38 DF91      		pop r29
 4792               	.LVL403:
 4793 1b3a 1F91      		pop r17
 4794 1b3c 0F91      		pop r16
 4795 1b3e FF90      		pop r15
 4796 1b40 EF90      		pop r14
 4797 1b42 DF90      		pop r13
 4798 1b44 CF90      		pop r12
 4799 1b46 BF90      		pop r11
 4800 1b48 AF90      		pop r10
 4801 1b4a 9F90      		pop r9
 4802 1b4c 8F90      		pop r8
 4803 1b4e 7F90      		pop r7
 4804 1b50 6F90      		pop r6
 4805 1b52 5F90      		pop r5
 4806               	.LVL404:
 4807 1b54 4F90      		pop r4
 4808 1b56 3F90      		pop r3
 4809 1b58 2F90      		pop r2
 4810 1b5a 0895      		ret
 4811               	.LFE31:
 4813               	.global	effect_explosion
 4815               	effect_explosion:
 4816               	.LFB28:
 4817               	.LM613:
 4818               	.LVL405:
 4819 1b5c 2F92      		push r2
 4820 1b5e 3F92      		push r3
 4821 1b60 4F92      		push r4
 4822 1b62 5F92      		push r5
 4823 1b64 6F92      		push r6
 4824 1b66 7F92      		push r7
 4825 1b68 8F92      		push r8
 4826 1b6a 9F92      		push r9
 4827 1b6c AF92      		push r10
 4828 1b6e BF92      		push r11
 4829 1b70 CF92      		push r12
 4830 1b72 DF92      		push r13
 4831 1b74 EF92      		push r14
 4832 1b76 FF92      		push r15
 4833 1b78 0F93      		push r16
 4834 1b7a 1F93      		push r17
 4835 1b7c DF93      		push r29
 4836 1b7e CF93      		push r28
 4837 1b80 CDB7      		in r28,__SP_L__
 4838 1b82 DEB7      		in r29,__SP_H__
 4839 1b84 CD57      		subi r28,lo8(-(-125))
 4840 1b86 D040      		sbci r29,hi8(-(-125))
 4841 1b88 0FB6      		in __tmp_reg__,__SREG__
 4842 1b8a F894      		cli
 4843 1b8c DEBF      		out __SP_H__,r29
 4844 1b8e 0FBE      		out __SREG__,__tmp_reg__
 4845 1b90 CDBF      		out __SP_L__,r28
 4846               	/* prologue: function */
 4847               	/* frame size = 125 */
 4848               	/* stack size = 143 */
 4849               	.L__stack_usage = 143
 4850 1b92 5A01      		movw r10,r20
 4851               	.LVL406:
 4852               	.LM614:
 4853 1b94 80E0      		ldi r24,lo8(0)
 4854 1b96 90E0      		ldi r25,hi8(0)
 4855               	.LVL407:
 4856               	.LM615:
 4857 1b98 69E1      		ldi r22,lo8(25)
 4858 1b9a 70E0      		ldi r23,hi8(25)
 4859               	.LVL408:
 4860 1b9c AE01      		movw r20,r28
 4861               	.LVL409:
 4862 1b9e 4F5F      		subi r20,lo8(-(1))
 4863 1ba0 5F4F      		sbci r21,hi8(-(1))
 4864 1ba2 00C0      		rjmp .L239
 4865               	.LVL410:
 4866               	.L240:
 4867               	.LM616:
 4868 1ba4 1082      		st Z,__zero_reg__
 4869               	.LVL411:
 4870 1ba6 1182      		std Z+1,__zero_reg__
 4871               	.LVL412:
 4872 1ba8 1282      		std Z+2,__zero_reg__
 4873               	.LVL413:
 4874 1baa 1382      		std Z+3,__zero_reg__
 4875               	.LVL414:
 4876 1bac 1482      		std Z+4,__zero_reg__
 4877               	.LVL415:
 4878 1bae 2150      		subi r18,lo8(-(-1))
 4879 1bb0 3040      		sbci r19,hi8(-(-1))
 4880 1bb2 3596      		adiw r30,5
 4881               	.LM617:
 4882 1bb4 2115      		cp r18,__zero_reg__
 4883 1bb6 3105      		cpc r19,__zero_reg__
 4884 1bb8 01F4      		brne .L240
 4885               	.LM618:
 4886 1bba 0196      		adiw r24,1
 4887               	.LVL416:
 4888 1bbc 8530      		cpi r24,5
 4889 1bbe 9105      		cpc r25,__zero_reg__
 4890 1bc0 01F0      		breq .L241
 4891               	.LVL417:
 4892               	.L239:
 4893               	.LM619:
 4894 1bc2 869F      		mul r24,r22
 4895 1bc4 F001      		movw r30,r0
 4896 1bc6 879F      		mul r24,r23
 4897 1bc8 F00D      		add r31,r0
 4898 1bca 969F      		mul r25,r22
 4899 1bcc F00D      		add r31,r0
 4900 1bce 1124      		clr r1
 4901 1bd0 E40F      		add r30,r20
 4902 1bd2 F51F      		adc r31,r21
 4903 1bd4 25E0      		ldi r18,lo8(5)
 4904 1bd6 30E0      		ldi r19,hi8(5)
 4905 1bd8 00C0      		rjmp .L240
 4906               	.LVL418:
 4907               	.L241:
 4908               	.LM620:
 4909 1bda 8E01      		movw r16,r28
 4910 1bdc 0F5F      		subi r16,lo8(-(1))
 4911 1bde 1F4F      		sbci r17,hi8(-(1))
 4912 1be0 C801      		movw r24,r16
 4913               	.LVL419:
 4914 1be2 B501      		movw r22,r10
 4915 1be4 0E94 0000 		call grow
 4916               	.LVL420:
 4917               	.LM621:
 4918 1be8 CC24      		clr r12
 4919 1bea DD24      		clr r13
 4920               	.LM622:
 4921 1bec 63E0      		ldi r22,lo8(3)
 4922 1bee 462E      		mov r4,r22
 4923 1bf0 512C      		mov r5,__zero_reg__
 4924 1bf2 612C      		mov r6,__zero_reg__
 4925 1bf4 712C      		mov r7,__zero_reg__
 4926 1bf6 4501      		movw r8,r10
 4927 1bf8 00C0      		rjmp .L242
 4928               	.LVL421:
 4929               	.L245:
 4930 1bfa 0E94 0000 		call random
 4931               	.LVL422:
 4932 1bfe A301      		movw r20,r6
 4933 1c00 9201      		movw r18,r4
 4934 1c02 0E94 0000 		call __divmodsi4
 4935               	.LVL423:
 4936               	.LM623:
 4937 1c06 6115      		cp r22,__zero_reg__
 4938 1c08 7105      		cpc r23,__zero_reg__
 4939 1c0a 01F4      		brne .L243
 4940               	.LM624:
 4941 1c0c 81E0      		ldi r24,lo8(1)
 4942 1c0e F801      		movw r30,r16
 4943 1c10 8083      		st Z,r24
 4944 1c12 00C0      		rjmp .L244
 4945               	.L243:
 4946               	.LM625:
 4947 1c14 F801      		movw r30,r16
 4948 1c16 1082      		st Z,__zero_reg__
 4949               	.L244:
 4950 1c18 0894      		sec
 4951 1c1a C108      		sbc r12,__zero_reg__
 4952 1c1c D108      		sbc r13,__zero_reg__
 4953 1c1e 0F5F      		subi r16,lo8(-(1))
 4954 1c20 1F4F      		sbci r17,hi8(-(1))
 4955               	.LM626:
 4956 1c22 C114      		cp r12,__zero_reg__
 4957 1c24 D104      		cpc r13,__zero_reg__
 4958 1c26 01F4      		brne .L245
 4959               	.LM627:
 4960 1c28 0894      		sec
 4961 1c2a E11C      		adc r14,__zero_reg__
 4962 1c2c F11C      		adc r15,__zero_reg__
 4963               	.LVL424:
 4964 1c2e F5E0      		ldi r31,lo8(5)
 4965 1c30 EF16      		cp r14,r31
 4966 1c32 F104      		cpc r15,__zero_reg__
 4967 1c34 01F0      		breq .L246
 4968               	.LVL425:
 4969               	.L248:
 4970               	.LM628:
 4971 1c36 8701      		movw r16,r14
 4972 1c38 000F      		lsl r16
 4973 1c3a 111F      		rol r17
 4974 1c3c 000F      		lsl r16
 4975 1c3e 111F      		rol r17
 4976 1c40 0E0D      		add r16,r14
 4977 1c42 1F1D      		adc r17,r15
 4978 1c44 020D      		add r16,r2
 4979 1c46 131D      		adc r17,r3
 4980 1c48 81E0      		ldi r24,lo8(1)
 4981 1c4a 90E0      		ldi r25,hi8(1)
 4982 1c4c 8C0F      		add r24,r28
 4983 1c4e 9D1F      		adc r25,r29
 4984 1c50 080F      		add r16,r24
 4985 1c52 191F      		adc r17,r25
 4986 1c54 45E0      		ldi r20,lo8(5)
 4987 1c56 C42E      		mov r12,r20
 4988 1c58 D12C      		mov r13,__zero_reg__
 4989 1c5a 00C0      		rjmp .L245
 4990               	.LVL426:
 4991               	.L246:
 4992 1c5c 6501      		movw r12,r10
 4993               	.LM629:
 4994 1c5e 0894      		sec
 4995 1c60 C11C      		adc r12,__zero_reg__
 4996 1c62 D11C      		adc r13,__zero_reg__
 4997               	.LVL427:
 4998 1c64 95E0      		ldi r25,lo8(5)
 4999 1c66 C916      		cp r12,r25
 5000 1c68 D104      		cpc r13,__zero_reg__
 5001 1c6a 01F0      		breq .L247
 5002               	.LVL428:
 5003               	.L242:
 5004               	.LM630:
 5005 1c6c EE24      		clr r14
 5006 1c6e FF24      		clr r15
 5007 1c70 E9E1      		ldi r30,lo8(25)
 5008 1c72 F0E0      		ldi r31,hi8(25)
 5009 1c74 CE9E      		mul r12,r30
 5010 1c76 1001      		movw r2,r0
 5011 1c78 CF9E      		mul r12,r31
 5012 1c7a 300C      		add r3,r0
 5013 1c7c DE9E      		mul r13,r30
 5014 1c7e 300C      		add r3,r0
 5015 1c80 1124      		clr r1
 5016 1c82 5601      		movw r10,r12
 5017 1c84 00C0      		rjmp .L248
 5018               	.LVL429:
 5019               	.L247:
 5020 1c86 5401      		movw r10,r8
 5021               	.LM631:
 5022 1c88 8E01      		movw r16,r28
 5023 1c8a 0F5F      		subi r16,lo8(-(1))
 5024 1c8c 1F4F      		sbci r17,hi8(-(1))
 5025 1c8e C801      		movw r24,r16
 5026 1c90 B401      		movw r22,r8
 5027 1c92 0E94 0000 		call shrink
 5028               	.LM632:
 5029 1c96 C801      		movw r24,r16
 5030 1c98 B401      		movw r22,r8
 5031 1c9a 0E94 0000 		call grow
 5032               	.LVL430:
 5033               	.LM633:
 5034 1c9e 80E0      		ldi r24,lo8(0)
 5035 1ca0 90E0      		ldi r25,hi8(0)
 5036               	.LM634:
 5037 1ca2 49E1      		ldi r20,lo8(25)
 5038 1ca4 50E0      		ldi r21,hi8(25)
 5039 1ca6 00C0      		rjmp .L249
 5040               	.LVL431:
 5041               	.L250:
 5042               	.LM635:
 5043 1ca8 1082      		st Z,__zero_reg__
 5044               	.LVL432:
 5045 1caa 1182      		std Z+1,__zero_reg__
 5046               	.LVL433:
 5047 1cac 1282      		std Z+2,__zero_reg__
 5048               	.LVL434:
 5049 1cae 1382      		std Z+3,__zero_reg__
 5050               	.LVL435:
 5051 1cb0 1482      		std Z+4,__zero_reg__
 5052               	.LVL436:
 5053 1cb2 2150      		subi r18,lo8(-(-1))
 5054 1cb4 3040      		sbci r19,hi8(-(-1))
 5055 1cb6 3596      		adiw r30,5
 5056               	.LM636:
 5057 1cb8 2115      		cp r18,__zero_reg__
 5058 1cba 3105      		cpc r19,__zero_reg__
 5059 1cbc 01F4      		brne .L250
 5060               	.LM637:
 5061 1cbe 0196      		adiw r24,1
 5062               	.LVL437:
 5063 1cc0 8530      		cpi r24,5
 5064 1cc2 9105      		cpc r25,__zero_reg__
 5065 1cc4 01F0      		breq .L251
 5066               	.LVL438:
 5067               	.L249:
 5068               	.LM638:
 5069 1cc6 849F      		mul r24,r20
 5070 1cc8 F001      		movw r30,r0
 5071 1cca 859F      		mul r24,r21
 5072 1ccc F00D      		add r31,r0
 5073 1cce 949F      		mul r25,r20
 5074 1cd0 F00D      		add r31,r0
 5075 1cd2 1124      		clr r1
 5076 1cd4 E00F      		add r30,r16
 5077 1cd6 F11F      		adc r31,r17
 5078 1cd8 25E0      		ldi r18,lo8(5)
 5079 1cda 30E0      		ldi r19,hi8(5)
 5080 1cdc 00C0      		rjmp .L250
 5081               	.LVL439:
 5082               	.L251:
 5083               	.LM639:
 5084 1cde CE01      		movw r24,r28
 5085               	.LVL440:
 5086 1ce0 0196      		adiw r24,1
 5087 1ce2 B501      		movw r22,r10
 5088 1ce4 0E94 0000 		call shrink
 5089               	/* epilogue start */
 5090               	.LM640:
 5091 1ce8 C358      		subi r28,lo8(-(125))
 5092 1cea DF4F      		sbci r29,hi8(-(125))
 5093 1cec 0FB6      		in __tmp_reg__,__SREG__
 5094 1cee F894      		cli
 5095 1cf0 DEBF      		out __SP_H__,r29
 5096 1cf2 0FBE      		out __SREG__,__tmp_reg__
 5097 1cf4 CDBF      		out __SP_L__,r28
 5098 1cf6 CF91      		pop r28
 5099 1cf8 DF91      		pop r29
 5100 1cfa 1F91      		pop r17
 5101 1cfc 0F91      		pop r16
 5102 1cfe FF90      		pop r15
 5103 1d00 EF90      		pop r14
 5104 1d02 DF90      		pop r13
 5105 1d04 CF90      		pop r12
 5106 1d06 BF90      		pop r11
 5107 1d08 AF90      		pop r10
 5108 1d0a 9F90      		pop r9
 5109 1d0c 8F90      		pop r8
 5110               	.LVL441:
 5111 1d0e 7F90      		pop r7
 5112 1d10 6F90      		pop r6
 5113 1d12 5F90      		pop r5
 5114 1d14 4F90      		pop r4
 5115 1d16 3F90      		pop r3
 5116 1d18 2F90      		pop r2
 5117 1d1a 0895      		ret
 5118               	.LFE28:
 5120               	.global	dim
 5122               	dim:
 5123               	.LFB33:
 5124               	.LM641:
 5125               	.LVL442:
 5126 1d1c EF92      		push r14
 5127 1d1e FF92      		push r15
 5128 1d20 0F93      		push r16
 5129 1d22 1F93      		push r17
 5130 1d24 CF93      		push r28
 5131 1d26 DF93      		push r29
 5132               	/* prologue: function */
 5133               	/* frame size = 0 */
 5134               	/* stack size = 6 */
 5135               	.L__stack_usage = 6
 5136 1d28 7C01      		movw r14,r24
 5137               	.LVL443:
 5138               	.LM642:
 5139 1d2a CAE0      		ldi r28,lo8(10)
 5140 1d2c D0E0      		ldi r29,hi8(10)
 5141               	.LBB31:
 5142               	.LM643:
 5143 1d2e 0AE0      		ldi r16,lo8(10)
 5144 1d30 10E0      		ldi r17,hi8(10)
 5145               	.LVL444:
 5146               	.L256:
 5147               	.LM644:
 5148 1d32 C701      		movw r24,r14
 5149 1d34 B801      		movw r22,r16
 5150 1d36 0E94 0000 		call __divmodhi4
 5151 1d3a 7C01      		movw r14,r24
 5152               	.LVL445:
 5153               	.LM645:
 5154 1d3c 8FE1      		ldi r24,lo8(31)
 5155               	.LVL446:
 5156 1d3e 0E94 0000 		call fill
 5157               	.LM646:
 5158 1d42 C701      		movw r24,r14
 5159 1d44 0E94 0000 		call delay_ms
 5160               	.LM647:
 5161 1d48 80E0      		ldi r24,lo8(0)
 5162 1d4a 0E94 0000 		call fill
 5163               	.LM648:
 5164 1d4e C801      		movw r24,r16
 5165 1d50 8E19      		sub r24,r14
 5166 1d52 9F09      		sbc r25,r15
 5167 1d54 0E94 0000 		call delay_ms
 5168 1d58 2197      		sbiw r28,1
 5169               	.LM649:
 5170 1d5a 01F4      		brne .L256
 5171               	/* epilogue start */
 5172               	.LBE31:
 5173               	.LM650:
 5174 1d5c DF91      		pop r29
 5175 1d5e CF91      		pop r28
 5176 1d60 1F91      		pop r17
 5177 1d62 0F91      		pop r16
 5178 1d64 FF90      		pop r15
 5179 1d66 EF90      		pop r14
 5180               	.LVL447:
 5181 1d68 0895      		ret
 5182               	.LFE33:
 5184               	.global	effect_blink
 5186               	effect_blink:
 5187               	.LFB32:
 5188               	.LM651:
 5189               	.LVL448:
 5190               	/* prologue: function */
 5191               	/* frame size = 0 */
 5192               	/* stack size = 0 */
 5193               	.L__stack_usage = 0
 5194               	.LM652:
 5195 1d6a 8091 0000 		lds r24,bla
 5196 1d6e 9091 0000 		lds r25,bla+1
 5197               	.LVL449:
 5198 1d72 0E94 0000 		call dim
 5199               	.LVL450:
 5200               	.LM653:
 5201 1d76 8091 0000 		lds r24,up
 5202 1d7a 9091 0000 		lds r25,up+1
 5203 1d7e 8130      		cpi r24,1
 5204 1d80 9105      		cpc r25,__zero_reg__
 5205 1d82 01F4      		brne .L259
 5206               	.LM654:
 5207 1d84 8091 0000 		lds r24,bla
 5208 1d88 9091 0000 		lds r25,bla+1
 5209 1d8c 0196      		adiw r24,1
 5210 1d8e 9093 0000 		sts bla+1,r25
 5211 1d92 8093 0000 		sts bla,r24
 5212               	.LM655:
 5213 1d96 8930      		cpi r24,9
 5214 1d98 9105      		cpc r25,__zero_reg__
 5215 1d9a 01F4      		brne .L259
 5216               	.LM656:
 5217 1d9c 1092 0000 		sts up+1,__zero_reg__
 5218 1da0 1092 0000 		sts up,__zero_reg__
 5219               	.L259:
 5220               	.LM657:
 5221 1da4 8091 0000 		lds r24,up
 5222 1da8 9091 0000 		lds r25,up+1
 5223 1dac 0097      		sbiw r24,0
 5224 1dae 01F4      		brne .L258
 5225               	.LM658:
 5226 1db0 8091 0000 		lds r24,bla
 5227 1db4 9091 0000 		lds r25,bla+1
 5228 1db8 0197      		sbiw r24,1
 5229 1dba 9093 0000 		sts bla+1,r25
 5230 1dbe 8093 0000 		sts bla,r24
 5231               	.LM659:
 5232 1dc2 0097      		sbiw r24,0
 5233 1dc4 01F4      		brne .L258
 5234               	.LM660:
 5235 1dc6 81E0      		ldi r24,lo8(1)
 5236 1dc8 90E0      		ldi r25,hi8(1)
 5237 1dca 9093 0000 		sts up+1,r25
 5238 1dce 8093 0000 		sts up,r24
 5239               	.L258:
 5240 1dd2 0895      		ret
 5241               	.LFE32:
 5243               	.global	effect_snow
 5245               	effect_snow:
 5246               	.LFB34:
 5247               	.LM661:
 5248               	.LVL451:
 5249 1dd4 AF92      		push r10
 5250 1dd6 BF92      		push r11
 5251 1dd8 CF92      		push r12
 5252 1dda DF92      		push r13
 5253 1ddc EF92      		push r14
 5254 1dde FF92      		push r15
 5255 1de0 0F93      		push r16
 5256 1de2 1F93      		push r17
 5257 1de4 CF93      		push r28
 5258 1de6 DF93      		push r29
 5259               	/* prologue: function */
 5260               	/* frame size = 0 */
 5261               	/* stack size = 10 */
 5262               	.L__stack_usage = 10
 5263 1de8 5A01      		movw r10,r20
 5264               	.LVL452:
 5265               	.LM662:
 5266 1dea 00E0      		ldi r16,lo8(0)
 5267 1dec 10E0      		ldi r17,hi8(0)
 5268 1dee 00C0      		rjmp .L262
 5269               	.LVL453:
 5270               	.L274:
 5271               	.LM663:
 5272 1df0 7601      		movw r14,r12
 5273               	.LVL454:
 5274               	.L265:
 5275               	.LM664:
 5276 1df2 6701      		movw r12,r14
 5277 1df4 0894      		sec
 5278 1df6 C11C      		adc r12,__zero_reg__
 5279 1df8 D11C      		adc r13,__zero_reg__
 5280 1dfa C801      		movw r24,r16
 5281 1dfc BE01      		movw r22,r28
 5282 1dfe A601      		movw r20,r12
 5283 1e00 0E94 0000 		call getLED
 5284 1e04 8823      		tst r24
 5285 1e06 01F0      		breq .L263
 5286               	.LM665:
 5287 1e08 C801      		movw r24,r16
 5288 1e0a BE01      		movw r22,r28
 5289 1e0c A701      		movw r20,r14
 5290 1e0e 0E94 0000 		call setLED
 5291 1e12 00C0      		rjmp .L264
 5292               	.L263:
 5293               	.LM666:
 5294 1e14 C801      		movw r24,r16
 5295 1e16 BE01      		movw r22,r28
 5296 1e18 A701      		movw r20,r14
 5297 1e1a 0E94 0000 		call clrLED
 5298               	.L264:
 5299               	.LVL455:
 5300               	.LM667:
 5301 1e1e 84E0      		ldi r24,lo8(4)
 5302 1e20 C816      		cp r12,r24
 5303 1e22 D104      		cpc r13,__zero_reg__
 5304 1e24 01F4      		brne .L274
 5305               	.LM668:
 5306 1e26 2196      		adiw r28,1
 5307               	.LVL456:
 5308 1e28 C530      		cpi r28,5
 5309 1e2a D105      		cpc r29,__zero_reg__
 5310 1e2c 01F0      		breq .L266
 5311               	.LVL457:
 5312               	.L268:
 5313               	.LM669:
 5314 1e2e EE24      		clr r14
 5315 1e30 FF24      		clr r15
 5316 1e32 00C0      		rjmp .L265
 5317               	.LVL458:
 5318               	.L266:
 5319               	.LM670:
 5320 1e34 0F5F      		subi r16,lo8(-(1))
 5321 1e36 1F4F      		sbci r17,hi8(-(1))
 5322               	.LVL459:
 5323 1e38 0530      		cpi r16,5
 5324 1e3a 1105      		cpc r17,__zero_reg__
 5325 1e3c 01F0      		breq .L267
 5326               	.LVL460:
 5327               	.L262:
 5328               	.LM671:
 5329 1e3e C0E0      		ldi r28,lo8(0)
 5330 1e40 D0E0      		ldi r29,hi8(0)
 5331 1e42 00C0      		rjmp .L268
 5332               	.LVL461:
 5333               	.L271:
 5334               	.LM672:
 5335 1e44 0E94 0000 		call random
 5336               	.LVL462:
 5337 1e48 A701      		movw r20,r14
 5338 1e4a 9601      		movw r18,r12
 5339 1e4c 0E94 0000 		call __divmodsi4
 5340               	.LVL463:
 5341               	.LM673:
 5342 1e50 6115      		cp r22,__zero_reg__
 5343 1e52 7105      		cpc r23,__zero_reg__
 5344 1e54 01F4      		brne .L269
 5345               	.LM674:
 5346 1e56 C801      		movw r24,r16
 5347 1e58 BE01      		movw r22,r28
 5348 1e5a 44E0      		ldi r20,lo8(4)
 5349 1e5c 50E0      		ldi r21,hi8(4)
 5350 1e5e 0E94 0000 		call setLED
 5351 1e62 00C0      		rjmp .L270
 5352               	.L269:
 5353               	.LM675:
 5354 1e64 C801      		movw r24,r16
 5355 1e66 BE01      		movw r22,r28
 5356 1e68 44E0      		ldi r20,lo8(4)
 5357 1e6a 50E0      		ldi r21,hi8(4)
 5358 1e6c 0E94 0000 		call clrLED
 5359               	.L270:
 5360               	.LM676:
 5361 1e70 2196      		adiw r28,1
 5362               	.LVL464:
 5363 1e72 C530      		cpi r28,5
 5364 1e74 D105      		cpc r29,__zero_reg__
 5365 1e76 01F4      		brne .L271
 5366               	.LM677:
 5367 1e78 0F5F      		subi r16,lo8(-(1))
 5368 1e7a 1F4F      		sbci r17,hi8(-(1))
 5369               	.LVL465:
 5370 1e7c 0530      		cpi r16,5
 5371 1e7e 1105      		cpc r17,__zero_reg__
 5372 1e80 01F4      		brne .L272
 5373 1e82 00C0      		rjmp .L278
 5374               	.LVL466:
 5375               	.L267:
 5376               	.LM678:
 5377 1e84 00E0      		ldi r16,lo8(0)
 5378 1e86 10E0      		ldi r17,hi8(0)
 5379               	.LVL467:
 5380               	.LM679:
 5381 1e88 78E0      		ldi r23,lo8(8)
 5382 1e8a C72E      		mov r12,r23
 5383 1e8c D12C      		mov r13,__zero_reg__
 5384 1e8e E12C      		mov r14,__zero_reg__
 5385 1e90 F12C      		mov r15,__zero_reg__
 5386               	.LVL468:
 5387               	.L272:
 5388               	.LM680:
 5389 1e92 C0E0      		ldi r28,lo8(0)
 5390 1e94 D0E0      		ldi r29,hi8(0)
 5391 1e96 00C0      		rjmp .L271
 5392               	.LVL469:
 5393               	.L278:
 5394               	.LM681:
 5395 1e98 C501      		movw r24,r10
 5396 1e9a 0E94 0000 		call delay_ms
 5397               	/* epilogue start */
 5398               	.LM682:
 5399 1e9e DF91      		pop r29
 5400 1ea0 CF91      		pop r28
 5401               	.LVL470:
 5402 1ea2 1F91      		pop r17
 5403 1ea4 0F91      		pop r16
 5404               	.LVL471:
 5405 1ea6 FF90      		pop r15
 5406 1ea8 EF90      		pop r14
 5407 1eaa DF90      		pop r13
 5408 1eac CF90      		pop r12
 5409 1eae BF90      		pop r11
 5410 1eb0 AF90      		pop r10
 5411               	.LVL472:
 5412 1eb2 0895      		ret
 5413               	.LFE34:
 5415               	.global	effect_noise
 5417               	effect_noise:
 5418               	.LFB35:
 5419               	.LM683:
 5420               	.LVL473:
 5421 1eb4 AF92      		push r10
 5422 1eb6 BF92      		push r11
 5423 1eb8 CF92      		push r12
 5424 1eba DF92      		push r13
 5425 1ebc EF92      		push r14
 5426 1ebe FF92      		push r15
 5427 1ec0 0F93      		push r16
 5428 1ec2 1F93      		push r17
 5429 1ec4 CF93      		push r28
 5430 1ec6 DF93      		push r29
 5431               	/* prologue: function */
 5432               	/* frame size = 0 */
 5433               	/* stack size = 10 */
 5434               	.L__stack_usage = 10
 5435               	.LVL474:
 5436               	.LM684:
 5437 1ec8 EE24      		clr r14
 5438 1eca FF24      		clr r15
 5439               	.LM685:
 5440 1ecc E2E0      		ldi r30,lo8(2)
 5441 1ece AE2E      		mov r10,r30
 5442 1ed0 B12C      		mov r11,__zero_reg__
 5443 1ed2 C12C      		mov r12,__zero_reg__
 5444 1ed4 D12C      		mov r13,__zero_reg__
 5445 1ed6 00C0      		rjmp .L280
 5446               	.LVL475:
 5447               	.L283:
 5448 1ed8 0E94 0000 		call random
 5449               	.LVL476:
 5450 1edc A601      		movw r20,r12
 5451 1ede 9501      		movw r18,r10
 5452 1ee0 0E94 0000 		call __divmodsi4
 5453               	.LVL477:
 5454               	.LM686:
 5455 1ee4 6115      		cp r22,__zero_reg__
 5456 1ee6 7105      		cpc r23,__zero_reg__
 5457 1ee8 01F0      		breq .L281
 5458               	.LM687:
 5459 1eea C701      		movw r24,r14
 5460 1eec B801      		movw r22,r16
 5461 1eee AE01      		movw r20,r28
 5462 1ef0 0E94 0000 		call setLED
 5463 1ef4 00C0      		rjmp .L282
 5464               	.L281:
 5465               	.LM688:
 5466 1ef6 C701      		movw r24,r14
 5467 1ef8 B801      		movw r22,r16
 5468 1efa AE01      		movw r20,r28
 5469 1efc 0E94 0000 		call clrLED
 5470               	.L282:
 5471               	.LM689:
 5472 1f00 2196      		adiw r28,1
 5473               	.LVL478:
 5474 1f02 C530      		cpi r28,5
 5475 1f04 D105      		cpc r29,__zero_reg__
 5476 1f06 01F4      		brne .L283
 5477               	.LM690:
 5478 1f08 0F5F      		subi r16,lo8(-(1))
 5479 1f0a 1F4F      		sbci r17,hi8(-(1))
 5480               	.LVL479:
 5481 1f0c 0530      		cpi r16,5
 5482 1f0e 1105      		cpc r17,__zero_reg__
 5483 1f10 01F0      		breq .L284
 5484               	.LVL480:
 5485               	.L286:
 5486               	.LM691:
 5487 1f12 C0E0      		ldi r28,lo8(0)
 5488 1f14 D0E0      		ldi r29,hi8(0)
 5489 1f16 00C0      		rjmp .L283
 5490               	.LVL481:
 5491               	.L284:
 5492               	.LM692:
 5493 1f18 0894      		sec
 5494 1f1a E11C      		adc r14,__zero_reg__
 5495 1f1c F11C      		adc r15,__zero_reg__
 5496               	.LVL482:
 5497 1f1e 85E0      		ldi r24,lo8(5)
 5498 1f20 E816      		cp r14,r24
 5499 1f22 F104      		cpc r15,__zero_reg__
 5500 1f24 01F0      		breq .L279
 5501               	.LVL483:
 5502               	.L280:
 5503               	.LM693:
 5504 1f26 00E0      		ldi r16,lo8(0)
 5505 1f28 10E0      		ldi r17,hi8(0)
 5506 1f2a 00C0      		rjmp .L286
 5507               	.LVL484:
 5508               	.L279:
 5509               	/* epilogue start */
 5510               	.LM694:
 5511 1f2c DF91      		pop r29
 5512 1f2e CF91      		pop r28
 5513               	.LVL485:
 5514 1f30 1F91      		pop r17
 5515 1f32 0F91      		pop r16
 5516               	.LVL486:
 5517 1f34 FF90      		pop r15
 5518 1f36 EF90      		pop r14
 5519               	.LVL487:
 5520 1f38 DF90      		pop r13
 5521 1f3a CF90      		pop r12
 5522 1f3c BF90      		pop r11
 5523 1f3e AF90      		pop r10
 5524 1f40 0895      		ret
 5525               	.LFE35:
 5527               	.global	effect_everything_bitches
 5529               	effect_everything_bitches:
 5530               	.LFB26:
 5531               	.LM695:
 5532               	.LVL488:
 5533 1f42 CF93      		push r28
 5534 1f44 DF93      		push r29
 5535               	/* prologue: function */
 5536               	/* frame size = 0 */
 5537               	/* stack size = 2 */
 5538               	.L__stack_usage = 2
 5539               	.LVL489:
 5540               	.LM696:
 5541 1f46 C4E0      		ldi r28,lo8(4)
 5542 1f48 D0E0      		ldi r29,hi8(4)
 5543               	.LVL490:
 5544               	.L289:
 5545               	.LM697:
 5546 1f4a 81E0      		ldi r24,lo8(1)
 5547 1f4c 90E0      		ldi r25,hi8(1)
 5548 1f4e 6AE0      		ldi r22,lo8(10)
 5549 1f50 70E0      		ldi r23,hi8(10)
 5550 1f52 40E0      		ldi r20,lo8(0)
 5551 1f54 50E0      		ldi r21,hi8(0)
 5552 1f56 0E94 0000 		call effect_rings
 5553 1f5a 2197      		sbiw r28,1
 5554               	.LM698:
 5555 1f5c 01F4      		brne .L289
 5556 1f5e C4E0      		ldi r28,lo8(4)
 5557 1f60 D0E0      		ldi r29,hi8(4)
 5558               	.L290:
 5559               	.LM699:
 5560 1f62 81E0      		ldi r24,lo8(1)
 5561 1f64 90E0      		ldi r25,hi8(1)
 5562 1f66 6AE0      		ldi r22,lo8(10)
 5563 1f68 70E0      		ldi r23,hi8(10)
 5564 1f6a 40E0      		ldi r20,lo8(0)
 5565 1f6c 50E0      		ldi r21,hi8(0)
 5566 1f6e 0E94 0000 		call effect_explosion
 5567 1f72 2197      		sbiw r28,1
 5568               	.LM700:
 5569 1f74 01F4      		brne .L290
 5570 1f76 C0E1      		ldi r28,lo8(16)
 5571 1f78 D0E0      		ldi r29,hi8(16)
 5572               	.L291:
 5573               	.LM701:
 5574 1f7a 81E0      		ldi r24,lo8(1)
 5575 1f7c 90E0      		ldi r25,hi8(1)
 5576 1f7e 6AE0      		ldi r22,lo8(10)
 5577 1f80 70E0      		ldi r23,hi8(10)
 5578 1f82 41E8      		ldi r20,lo8(385)
 5579 1f84 51E0      		ldi r21,hi8(385)
 5580 1f86 0E94 0000 		call effect_snow
 5581 1f8a 2197      		sbiw r28,1
 5582               	.LM702:
 5583 1f8c 01F4      		brne .L291
 5584 1f8e C0E4      		ldi r28,lo8(64)
 5585 1f90 D0E0      		ldi r29,hi8(64)
 5586               	.L292:
 5587               	.LM703:
 5588 1f92 81E0      		ldi r24,lo8(1)
 5589 1f94 90E0      		ldi r25,hi8(1)
 5590 1f96 6AE0      		ldi r22,lo8(10)
 5591 1f98 70E0      		ldi r23,hi8(10)
 5592 1f9a 4AE0      		ldi r20,lo8(10)
 5593 1f9c 50E0      		ldi r21,hi8(10)
 5594 1f9e 0E94 0000 		call effect_blink
 5595 1fa2 2197      		sbiw r28,1
 5596               	.LM704:
 5597 1fa4 01F4      		brne .L292
 5598 1fa6 C0E8      		ldi r28,lo8(128)
 5599 1fa8 D0E0      		ldi r29,hi8(128)
 5600               	.L293:
 5601               	.LM705:
 5602 1faa 81E0      		ldi r24,lo8(1)
 5603 1fac 90E0      		ldi r25,hi8(1)
 5604 1fae 6AE0      		ldi r22,lo8(10)
 5605 1fb0 70E0      		ldi r23,hi8(10)
 5606 1fb2 4AE0      		ldi r20,lo8(10)
 5607 1fb4 50E0      		ldi r21,hi8(10)
 5608 1fb6 0E94 0000 		call effect_noise
 5609 1fba 2197      		sbiw r28,1
 5610               	.LM706:
 5611 1fbc 01F4      		brne .L293
 5612               	/* epilogue start */
 5613               	.LM707:
 5614 1fbe DF91      		pop r29
 5615 1fc0 CF91      		pop r28
 5616 1fc2 0895      		ret
 5617               	.LFE26:
 5619               	.global	effect_wasdf3
 5621               	effect_wasdf3:
 5622               	.LFB36:
 5623               	.LM708:
 5624               	.LVL491:
 5625 1fc4 AF92      		push r10
 5626 1fc6 BF92      		push r11
 5627 1fc8 CF92      		push r12
 5628 1fca DF92      		push r13
 5629 1fcc EF92      		push r14
 5630 1fce FF92      		push r15
 5631 1fd0 0F93      		push r16
 5632 1fd2 1F93      		push r17
 5633 1fd4 CF93      		push r28
 5634 1fd6 DF93      		push r29
 5635               	/* prologue: function */
 5636               	/* frame size = 0 */
 5637               	/* stack size = 10 */
 5638               	.L__stack_usage = 10
 5639               	.LVL492:
 5640               	.LM709:
 5641 1fd8 EE24      		clr r14
 5642 1fda FF24      		clr r15
 5643               	.LM710:
 5644 1fdc F2E0      		ldi r31,lo8(2)
 5645 1fde AF2E      		mov r10,r31
 5646 1fe0 B12C      		mov r11,__zero_reg__
 5647 1fe2 C12C      		mov r12,__zero_reg__
 5648 1fe4 D12C      		mov r13,__zero_reg__
 5649 1fe6 00C0      		rjmp .L300
 5650               	.LVL493:
 5651               	.L302:
 5652 1fe8 0E94 0000 		call random
 5653               	.LVL494:
 5654 1fec A601      		movw r20,r12
 5655 1fee 9501      		movw r18,r10
 5656 1ff0 0E94 0000 		call __divmodsi4
 5657               	.LVL495:
 5658               	.LM711:
 5659 1ff4 6115      		cp r22,__zero_reg__
 5660 1ff6 7105      		cpc r23,__zero_reg__
 5661 1ff8 01F0      		breq .L301
 5662               	.LM712:
 5663 1ffa C701      		movw r24,r14
 5664 1ffc B801      		movw r22,r16
 5665 1ffe AE01      		movw r20,r28
 5666 2000 0E94 0000 		call setLED
 5667               	.L301:
 5668               	.LM713:
 5669 2004 2196      		adiw r28,1
 5670               	.LVL496:
 5671 2006 C530      		cpi r28,5
 5672 2008 D105      		cpc r29,__zero_reg__
 5673 200a 01F4      		brne .L302
 5674               	.LM714:
 5675 200c 0F5F      		subi r16,lo8(-(1))
 5676 200e 1F4F      		sbci r17,hi8(-(1))
 5677               	.LVL497:
 5678 2010 0530      		cpi r16,5
 5679 2012 1105      		cpc r17,__zero_reg__
 5680 2014 01F0      		breq .L303
 5681               	.LVL498:
 5682               	.L305:
 5683               	.LM715:
 5684 2016 C0E0      		ldi r28,lo8(0)
 5685 2018 D0E0      		ldi r29,hi8(0)
 5686 201a 00C0      		rjmp .L302
 5687               	.LVL499:
 5688               	.L303:
 5689               	.LM716:
 5690 201c 0894      		sec
 5691 201e E11C      		adc r14,__zero_reg__
 5692 2020 F11C      		adc r15,__zero_reg__
 5693               	.LVL500:
 5694 2022 85E0      		ldi r24,lo8(5)
 5695 2024 E816      		cp r14,r24
 5696 2026 F104      		cpc r15,__zero_reg__
 5697 2028 01F0      		breq .L304
 5698               	.LVL501:
 5699               	.L300:
 5700               	.LM717:
 5701 202a 00E0      		ldi r16,lo8(0)
 5702 202c 10E0      		ldi r17,hi8(0)
 5703 202e 00C0      		rjmp .L305
 5704               	.LVL502:
 5705               	.L304:
 5706               	.LM718:
 5707 2030 88EE      		ldi r24,lo8(1000)
 5708 2032 93E0      		ldi r25,hi8(1000)
 5709 2034 0E94 0000 		call delay_ms
 5710               	.LM719:
 5711 2038 80E0      		ldi r24,lo8(0)
 5712 203a 0E94 0000 		call fill
 5713               	/* epilogue start */
 5714               	.LM720:
 5715 203e DF91      		pop r29
 5716 2040 CF91      		pop r28
 5717               	.LVL503:
 5718 2042 1F91      		pop r17
 5719 2044 0F91      		pop r16
 5720               	.LVL504:
 5721 2046 FF90      		pop r15
 5722 2048 EF90      		pop r14
 5723               	.LVL505:
 5724 204a DF90      		pop r13
 5725 204c CF90      		pop r12
 5726 204e BF90      		pop r11
 5727 2050 AF90      		pop r10
 5728 2052 0895      		ret
 5729               	.LFE36:
 5731               	.global	effect_wasdf2
 5733               	effect_wasdf2:
 5734               	.LFB37:
 5735               	.LM721:
 5736               	.LVL506:
 5737 2054 EF92      		push r14
 5738 2056 FF92      		push r15
 5739 2058 0F93      		push r16
 5740 205a 1F93      		push r17
 5741 205c CF93      		push r28
 5742 205e DF93      		push r29
 5743               	/* prologue: function */
 5744               	/* frame size = 0 */
 5745               	/* stack size = 6 */
 5746               	.L__stack_usage = 6
 5747               	.LVL507:
 5748               	.LM722:
 5749 2060 EE24      		clr r14
 5750 2062 FF24      		clr r15
 5751 2064 00C0      		rjmp .L308
 5752               	.LVL508:
 5753               	.L309:
 5754               	.LM723:
 5755 2066 C701      		movw r24,r14
 5756 2068 B801      		movw r22,r16
 5757 206a AE01      		movw r20,r28
 5758 206c 0E94 0000 		call setLED
 5759               	.LM724:
 5760 2070 84E1      		ldi r24,lo8(20)
 5761 2072 90E0      		ldi r25,hi8(20)
 5762 2074 0E94 0000 		call delay_ms
 5763               	.LM725:
 5764 2078 80E0      		ldi r24,lo8(0)
 5765 207a 0E94 0000 		call fill
 5766               	.LM726:
 5767 207e 2196      		adiw r28,1
 5768               	.LVL509:
 5769 2080 C530      		cpi r28,5
 5770 2082 D105      		cpc r29,__zero_reg__
 5771 2084 01F4      		brne .L309
 5772               	.LM727:
 5773 2086 0F5F      		subi r16,lo8(-(1))
 5774 2088 1F4F      		sbci r17,hi8(-(1))
 5775               	.LVL510:
 5776 208a 0530      		cpi r16,5
 5777 208c 1105      		cpc r17,__zero_reg__
 5778 208e 01F0      		breq .L310
 5779               	.LVL511:
 5780               	.L312:
 5781               	.LM728:
 5782 2090 C0E0      		ldi r28,lo8(0)
 5783 2092 D0E0      		ldi r29,hi8(0)
 5784 2094 00C0      		rjmp .L309
 5785               	.LVL512:
 5786               	.L310:
 5787               	.LM729:
 5788 2096 0894      		sec
 5789 2098 E11C      		adc r14,__zero_reg__
 5790 209a F11C      		adc r15,__zero_reg__
 5791               	.LVL513:
 5792 209c 85E0      		ldi r24,lo8(5)
 5793 209e E816      		cp r14,r24
 5794 20a0 F104      		cpc r15,__zero_reg__
 5795 20a2 01F0      		breq .L307
 5796               	.LVL514:
 5797               	.L308:
 5798               	.LM730:
 5799 20a4 00E0      		ldi r16,lo8(0)
 5800 20a6 10E0      		ldi r17,hi8(0)
 5801 20a8 00C0      		rjmp .L312
 5802               	.LVL515:
 5803               	.L307:
 5804               	/* epilogue start */
 5805               	.LM731:
 5806 20aa DF91      		pop r29
 5807 20ac CF91      		pop r28
 5808               	.LVL516:
 5809 20ae 1F91      		pop r17
 5810 20b0 0F91      		pop r16
 5811               	.LVL517:
 5812 20b2 FF90      		pop r15
 5813 20b4 EF90      		pop r14
 5814               	.LVL518:
 5815 20b6 0895      		ret
 5816               	.LFE37:
 5818               	.global	spinning_line
 5819               		.section	.progmem.data,"a",@progbits
 5822               	spinning_line:
 5823 0000 10        		.byte	16
 5824 0001 08        		.byte	8
 5825 0002 04        		.byte	4
 5826 0003 02        		.byte	2
 5827 0004 01        		.byte	1
 5828 0005 00        		.byte	0
 5829 0006 18        		.byte	24
 5830 0007 04        		.byte	4
 5831 0008 03        		.byte	3
 5832 0009 00        		.byte	0
 5833 000a 00        		.byte	0
 5834 000b 03        		.byte	3
 5835 000c 04        		.byte	4
 5836 000d 18        		.byte	24
 5837 000e 00        		.byte	0
 5838 000f 01        		.byte	1
 5839 0010 02        		.byte	2
 5840 0011 04        		.byte	4
 5841 0012 08        		.byte	8
 5842 0013 10        		.byte	16
 5843 0014 02        		.byte	2
 5844 0015 02        		.byte	2
 5845 0016 04        		.byte	4
 5846 0017 08        		.byte	8
 5847 0018 08        		.byte	8
 5848 0019 08        		.byte	8
 5849 001a 08        		.byte	8
 5850 001b 04        		.byte	4
 5851 001c 02        		.byte	2
 5852 001d 02        		.byte	2
 5853               	.global	bla
 5854               	.global	bla
 5855               		.section .bss
 5858               	bla:
 5859 0000 0000      		.skip 2,0
 5860               	.global	up
 5861               		.data
 5864               	up:
 5865 0000 0100      		.word	1
 5866               		.comm _Y_,5,1
 5867               		.comm _X_,5,1
 5868               		.comm _Z_,5,1
 5869               		.comm cube,25,1
 5870               		.comm tmpcube,25,1
 5871               		.comm current_layer,1,1
 5872               		.comm current_Yrow,1,1
 5873               		.comm current_effect,1,1
 5874               		.lcomm z.2212,2
 5875               		.lcomm y.2211,2
 5876               		.lcomm x.2210,2
 6189               	.Letext0:
DEFINED SYMBOLS
                            *ABS*:00000000 animation.c
C:\Users\Tobi\AppData\Local\Temp\cchZmJ9I.s:2      *ABS*:0000003f __SREG__
C:\Users\Tobi\AppData\Local\Temp\cchZmJ9I.s:3      *ABS*:0000003e __SP_H__
C:\Users\Tobi\AppData\Local\Temp\cchZmJ9I.s:4      *ABS*:0000003d __SP_L__
C:\Users\Tobi\AppData\Local\Temp\cchZmJ9I.s:5      *ABS*:00000034 __CCP__
C:\Users\Tobi\AppData\Local\Temp\cchZmJ9I.s:6      *ABS*:00000000 __tmp_reg__
C:\Users\Tobi\AppData\Local\Temp\cchZmJ9I.s:7      *ABS*:00000001 __zero_reg__
C:\Users\Tobi\AppData\Local\Temp\cchZmJ9I.s:18     .text:00000000 effect_spiral
C:\Users\Tobi\AppData\Local\Temp\cchZmJ9I.s:5822   .progmem.data:00000000 spinning_line
                            *COM*:00000019 cube
C:\Users\Tobi\AppData\Local\Temp\cchZmJ9I.s:203    .text:000000c0 effect_spinning_plane
C:\Users\Tobi\AppData\Local\Temp\cchZmJ9I.s:385    .text:00000172 effect_rain
C:\Users\Tobi\AppData\Local\Temp\cchZmJ9I.s:583    .text:00000298 sendvoxel_z
C:\Users\Tobi\AppData\Local\Temp\cchZmJ9I.s:692    .text:0000032e sendplane_rand_z
C:\Users\Tobi\AppData\Local\Temp\cchZmJ9I.s:784    .text:000003b4 sendvoxels_rand_z
C:\Users\Tobi\AppData\Local\Temp\cchZmJ9I.s:957    .text:000004a6 random_1
C:\Users\Tobi\AppData\Local\Temp\cchZmJ9I.s:1072   .text:00000556 random_2
C:\Users\Tobi\AppData\Local\Temp\cchZmJ9I.s:1122   .text:0000058c random_filler
C:\Users\Tobi\AppData\Local\Temp\cchZmJ9I.s:1242   .text:00000642 random_filler2
C:\Users\Tobi\AppData\Local\Temp\cchZmJ9I.s:1383   .text:00000710 planeflip
C:\Users\Tobi\AppData\Local\Temp\cchZmJ9I.s:1398   .text:00000712 loadbar
C:\Users\Tobi\AppData\Local\Temp\cchZmJ9I.s:1510   .text:0000079e flyplane
C:\Users\Tobi\AppData\Local\Temp\cchZmJ9I.s:1650   .text:00000856 blinky
C:\Users\Tobi\AppData\Local\Temp\cchZmJ9I.s:1711   .text:000008ae blinky2
C:\Users\Tobi\AppData\Local\Temp\cchZmJ9I.s:1849   .text:00000984 animateCharacter
C:\Users\Tobi\AppData\Local\Temp\cchZmJ9I.s:1907   .text:000009ca writeBlank
C:\Users\Tobi\AppData\Local\Temp\cchZmJ9I.s:1928   .text:000009da LCHamburg
C:\Users\Tobi\AppData\Local\Temp\cchZmJ9I.s:1991   .text:00000a3e shiftBack2
C:\Users\Tobi\AppData\Local\Temp\cchZmJ9I.s:2079   .text:00000aae shiftLeft
C:\Users\Tobi\AppData\Local\Temp\cchZmJ9I.s:2169   .text:00000b24 writer
C:\Users\Tobi\AppData\Local\Temp\cchZmJ9I.s:2582   .text:00000c80 create_cube
C:\Users\Tobi\AppData\Local\Temp\cchZmJ9I.s:2680   .text:00000d18 little_cube
C:\Users\Tobi\AppData\Local\Temp\cchZmJ9I.s:5874   .bss:00000004 y.2211
                             .bss:00000002 z.2212
C:\Users\Tobi\AppData\Local\Temp\cchZmJ9I.s:5875   .bss:00000006 x.2210
C:\Users\Tobi\AppData\Local\Temp\cchZmJ9I.s:2898   .text:00000e7e pumping_heart
C:\Users\Tobi\AppData\Local\Temp\cchZmJ9I.s:3794   .text:0000153a Sejla_Damir
C:\Users\Tobi\AppData\Local\Temp\cchZmJ9I.s:3820   .text:00001554 grow
C:\Users\Tobi\AppData\Local\Temp\cchZmJ9I.s:4116   .text:00001726 grow2
C:\Users\Tobi\AppData\Local\Temp\cchZmJ9I.s:4423   .text:00001912 effect_rings
C:\Users\Tobi\AppData\Local\Temp\cchZmJ9I.s:4521   .text:0000198c shrink
C:\Users\Tobi\AppData\Local\Temp\cchZmJ9I.s:4815   .text:00001b5c effect_explosion
C:\Users\Tobi\AppData\Local\Temp\cchZmJ9I.s:5122   .text:00001d1c dim
C:\Users\Tobi\AppData\Local\Temp\cchZmJ9I.s:5186   .text:00001d6a effect_blink
C:\Users\Tobi\AppData\Local\Temp\cchZmJ9I.s:5858   .bss:00000000 bla
C:\Users\Tobi\AppData\Local\Temp\cchZmJ9I.s:5864   .data:00000000 up
C:\Users\Tobi\AppData\Local\Temp\cchZmJ9I.s:5245   .text:00001dd4 effect_snow
C:\Users\Tobi\AppData\Local\Temp\cchZmJ9I.s:5417   .text:00001eb4 effect_noise
C:\Users\Tobi\AppData\Local\Temp\cchZmJ9I.s:5529   .text:00001f42 effect_everything_bitches
C:\Users\Tobi\AppData\Local\Temp\cchZmJ9I.s:5621   .text:00001fc4 effect_wasdf3
C:\Users\Tobi\AppData\Local\Temp\cchZmJ9I.s:5733   .text:00002054 effect_wasdf2
                            *COM*:00000005 _Y_
                            *COM*:00000005 _X_
                            *COM*:00000005 _Z_
                            *COM*:00000019 tmpcube
                            *COM*:00000001 current_layer
                            *COM*:00000001 current_Yrow
                            *COM*:00000001 current_effect

UNDEFINED SYMBOLS
__divmodhi4
delay_ms
fill
rand
setLED
clrLED
setplane_z
getLED
alterLED
setplane
letterToInt
getLetter
_writeA
_writeB
_writeC
_writeD
_writeE
_writeF
_writeG
_writeH
_writeI
_writeJ
_writeK
_writeL
_writeM
_writeN
_writeO
_writeP
_writeQ
_writeR
_writeS
_writeT
_writeU
_writeV
_writeW
_writeX
_writeY
_writeZ
_writeQM
_writeAPO
_writeEM
_writeBRKO
_writeBRKC
_writeEQL
_writeDOT
_writeCOM
_writeEMP
__floatsisf
sqrt
__ltsf2
__divsf3
__addsf3
__subsf3
random
__divmodsi4
__do_copy_data
__do_clear_bss
